---
triple:          'arm64-apple-darwin'
binary-path:     '/Users/nader/Documents/GitHub/opensheet-core/target/debug/deps/libopensheet_core.dylib'
relocations:
  - { offset: 0x1E, size: 0x8, addend: 0x0, symName: '__ZN4pyo38instance39Borrowed$LT$pyo3..types..any..PyAny$GT$15from_ptr_or_err17hde998348da3199e0E', symObjAddr: 0x0, symBinAddr: 0x890, symSize: 0x38 }
  - { offset: 0x1DED, size: 0x8, addend: 0x0, symName: '__ZN4pyo38instance39Borrowed$LT$pyo3..types..any..PyAny$GT$15from_ptr_or_err17hde998348da3199e0E', symObjAddr: 0x0, symBinAddr: 0x890, symSize: 0x38 }
  - { offset: 0x1E49, size: 0x8, addend: 0x0, symName: _PyInit__native, symObjAddr: 0x0, symBinAddr: 0x8C8, symSize: 0x34 }
  - { offset: 0x1E6D, size: 0x8, addend: 0x0, symName: __ZN14opensheet_core7_native9_PYO3_DEF17ha16dc4ffd2498d88E, symObjAddr: 0x118, symBinAddr: 0x702F0, symSize: 0x0 }
  - { offset: 0x1E8C, size: 0x8, addend: 0x0, symName: __ZN14opensheet_core7_native9_PYO3_DEF5SLOTS17hbf535d029879d867E, symObjAddr: 0x198, symBinAddr: 0x70370, symSize: 0x0 }
  - { offset: 0x1E99, size: 0x8, addend: 0x0, symName: __ZN14opensheet_core7_native9_PYO3_DEF18__pyo3_module_exec17ha2310749592bc5f1E, symObjAddr: 0x6C, symBinAddr: 0x934, symSize: 0x3C }
  - { offset: 0x1EC6, size: 0x8, addend: 0x0, symName: _PyInit__native, symObjAddr: 0x0, symBinAddr: 0x8C8, symSize: 0x34 }
  - { offset: 0x43B9, size: 0x8, addend: 0x0, symName: '__ZN14opensheet_core53_$LT$impl$u20$opensheet_core.._native..ModuleExec$GT$18__pyo3_module_exec17h992bc4fb64a34edaE', symObjAddr: 0x34, symBinAddr: 0x8FC, symSize: 0x38 }
  - { offset: 0x43F9, size: 0x8, addend: 0x0, symName: __ZN4pyo35impl_10trampoline11module_exec17h63fff6070574b2bdE, symObjAddr: 0x0, symBinAddr: 0x970, symSize: 0x34 }
  - { offset: 0x58B2, size: 0x8, addend: 0x0, symName: __ZN4pyo35impl_10trampoline11module_exec17h63fff6070574b2bdE, symObjAddr: 0x0, symBinAddr: 0x970, symSize: 0x34 }
  - { offset: 0x6274, size: 0x8, addend: 0x0, symName: '__ZN4pyo35impl_10trampoline6noargs5inner28_$u7b$$u7b$closure$u7d$$u7d$17heb0563f133930242E', symObjAddr: 0x0, symBinAddr: 0x9A4, symSize: 0x34 }
  - { offset: 0x76D7, size: 0x8, addend: 0x0, symName: '__ZN4pyo35impl_10trampoline6noargs5inner28_$u7b$$u7b$closure$u7d$$u7d$17heb0563f133930242E', symObjAddr: 0x0, symBinAddr: 0x9A4, symSize: 0x34 }
  - { offset: 0x8043, size: 0x8, addend: 0x0, symName: '__ZN153_$LT$core..result..Result$LT$T$C$F$GT$$u20$as$u20$core..ops..try_trait..FromResidual$LT$core..result..Result$LT$core..convert..Infallible$C$E$GT$$GT$$GT$13from_residual17h433a5e4d47206a5eE', symObjAddr: 0x0, symBinAddr: 0x9D8, symSize: 0x6C }
  - { offset: 0x880B, size: 0x8, addend: 0x0, symName: '__ZN153_$LT$core..result..Result$LT$T$C$F$GT$$u20$as$u20$core..ops..try_trait..FromResidual$LT$core..result..Result$LT$core..convert..Infallible$C$E$GT$$GT$$GT$13from_residual17h433a5e4d47206a5eE', symObjAddr: 0x0, symBinAddr: 0x9D8, symSize: 0x6C }
  - { offset: 0x8B28, size: 0x8, addend: 0x0, symName: '__ZN79_$LT$core..result..Result$LT$T$C$E$GT$$u20$as$u20$core..ops..try_trait..Try$GT$6branch17he75ffa6bea03b4cdE', symObjAddr: 0x1D8, symBinAddr: 0xBB0, symSize: 0x68 }
  - { offset: 0xA498, size: 0x8, addend: 0x0, symName: '__ZN4core6result19Result$LT$T$C$E$GT$3map17hd43dd7b5bcfa2100E', symObjAddr: 0x6C, symBinAddr: 0xA44, symSize: 0x90 }
  - { offset: 0xA56A, size: 0x8, addend: 0x0, symName: '__ZN4core6result19Result$LT$T$C$E$GT$7map_err17hfc0055f43ac0f73dE', symObjAddr: 0xFC, symBinAddr: 0xAD4, symSize: 0x40 }
  - { offset: 0xA5ED, size: 0x8, addend: 0x0, symName: '__ZN4core6result19Result$LT$T$C$E$GT$8and_then17h11cb2bfa727871eaE', symObjAddr: 0x13C, symBinAddr: 0xB14, symSize: 0x9C }
  - { offset: 0xA6B8, size: 0x8, addend: 0x0, symName: '__ZN4pyo35impl_4wrap30IntoPyObjectConverter$LT$T$GT$4wrap17he7b85562000a8cf9E', symObjAddr: 0x0, symBinAddr: 0xC18, symSize: 0x28 }
  - { offset: 0xBE2A, size: 0x8, addend: 0x0, symName: '__ZN4pyo35impl_4wrap62IntoPyObjectConverter$LT$core..result..Result$LT$T$C$E$GT$$GT$12map_into_ptr28_$u7b$$u7b$closure$u7d$$u7d$17h17c53915762ab389E', symObjAddr: 0x7C, symBinAddr: 0xC94, symSize: 0x38 }
  - { offset: 0xBE96, size: 0x8, addend: 0x0, symName: __ZN4pyo35impl_4wrap9converter17h23ec058c63386305E, symObjAddr: 0xB4, symBinAddr: 0xCCC, symSize: 0x10 }
  - { offset: 0xBEC3, size: 0x8, addend: 0x0, symName: __ZN4pyo35impl_4wrap9converter17h32a46999fdb10e04E, symObjAddr: 0xC4, symBinAddr: 0xCDC, symSize: 0x10 }
  - { offset: 0xBEF5, size: 0x8, addend: 0x0, symName: '__ZN81_$LT$pyo3..impl_..wrap..Converter$LT$T$GT$$u20$as$u20$core..ops..deref..Deref$GT$5deref17h40fb2b616a9d2c1bE', symObjAddr: 0xD4, symBinAddr: 0xCEC, symSize: 0x14 }
  - { offset: 0xBF2A, size: 0x8, addend: 0x0, symName: '__ZN81_$LT$pyo3..impl_..wrap..Converter$LT$T$GT$$u20$as$u20$core..ops..deref..Deref$GT$5deref17hb9eab8fd00c03fdaE', symObjAddr: 0xE8, symBinAddr: 0xD00, symSize: 0x14 }
  - { offset: 0xBF65, size: 0x8, addend: 0x0, symName: '__ZN91_$LT$pyo3..impl_..wrap..EmptyTupleConverter$LT$T$GT$$u20$as$u20$core..ops..deref..Deref$GT$5deref17hd34c4daf47b7c7c4E', symObjAddr: 0xFC, symBinAddr: 0xD14, symSize: 0x14 }
  - { offset: 0xBF9A, size: 0x8, addend: 0x0, symName: '__ZN91_$LT$pyo3..impl_..wrap..EmptyTupleConverter$LT$T$GT$$u20$as$u20$core..ops..deref..Deref$GT$5deref17hdbbfcb2dd3aa73ffE', symObjAddr: 0x110, symBinAddr: 0xD28, symSize: 0x14 }
  - { offset: 0xC33C, size: 0x8, addend: 0x0, symName: '__ZN4pyo35impl_4wrap30IntoPyObjectConverter$LT$T$GT$4wrap17he7b85562000a8cf9E', symObjAddr: 0x0, symBinAddr: 0xC18, symSize: 0x28 }
  - { offset: 0xC9EC, size: 0x8, addend: 0x0, symName: '__ZN4pyo35impl_4wrap62IntoPyObjectConverter$LT$core..result..Result$LT$T$C$E$GT$$GT$12map_into_ptr17h3e6a1593608b00bcE', symObjAddr: 0x28, symBinAddr: 0xC40, symSize: 0x54 }
  - { offset: 0xCAC3, size: 0x8, addend: 0x0, symName: '__ZN50_$LT$T$u20$as$u20$core..convert..Into$LT$U$GT$$GT$4into17h155792d01fbd00e8E', symObjAddr: 0x0, symBinAddr: 0xD3C, symSize: 0x24 }
  - { offset: 0xD292, size: 0x8, addend: 0x0, symName: '__ZN50_$LT$T$u20$as$u20$core..convert..Into$LT$U$GT$$GT$4into17h155792d01fbd00e8E', symObjAddr: 0x0, symBinAddr: 0xD3C, symSize: 0x24 }
  - { offset: 0xEA3B, size: 0x8, addend: 0x0, symName: __ZN4core3ops8function6FnOnce9call_once17h3b59e2e5ab5b7f43E, symObjAddr: 0x24, symBinAddr: 0xD60, symSize: 0x24 }
  - { offset: 0xFA11, size: 0x8, addend: 0x0, symName: __ZN3std5panic12catch_unwind17h1cbc85f60cbaa6e4E, symObjAddr: 0x0, symBinAddr: 0xD84, symSize: 0xE4 }
  - { offset: 0x11583, size: 0x8, addend: 0x0, symName: __ZN3std5panic12catch_unwind17h1cbc85f60cbaa6e4E, symObjAddr: 0x0, symBinAddr: 0xD84, symSize: 0xE4 }
  - { offset: 0x116A8, size: 0x8, addend: 0x0, symName: __ZN3std5panic12catch_unwind17hb71351453ee00600E, symObjAddr: 0xE4, symBinAddr: 0xE68, symSize: 0xE4 }
  - { offset: 0x121A3, size: 0x8, addend: 0x0, symName: __ZN4pyo35impl_10trampoline10trampoline17hb58fdf057bdd38c0E, symObjAddr: 0x0, symBinAddr: 0xFA0, symSize: 0x158 }
  - { offset: 0x138C4, size: 0x8, addend: 0x0, symName: __ZN4pyo35impl_10trampoline10trampoline17hb58fdf057bdd38c0E, symObjAddr: 0x0, symBinAddr: 0xFA0, symSize: 0x158 }
  - { offset: 0x1396D, size: 0x8, addend: 0x0, symName: __ZN4pyo35impl_10trampoline10trampoline17he480bba0aadb60afE, symObjAddr: 0x158, symBinAddr: 0x10F8, symSize: 0x158 }
  - { offset: 0x13A1A, size: 0x8, addend: 0x0, symName: '__ZN4pyo35impl_10trampoline10trampoline28_$u7b$$u7b$closure$u7d$$u7d$17h0ff6df1aaeaa2620E', symObjAddr: 0x2B0, symBinAddr: 0x1250, symSize: 0x2C }
  - { offset: 0x13A6B, size: 0x8, addend: 0x0, symName: '__ZN4pyo35impl_10trampoline10trampoline28_$u7b$$u7b$closure$u7d$$u7d$17h9eb4a0e90c0aa420E', symObjAddr: 0x2DC, symBinAddr: 0x127C, symSize: 0x2C }
  - { offset: 0x13AC2, size: 0x8, addend: 0x0, symName: '__ZN4pyo35impl_10trampoline11module_exec28_$u7b$$u7b$closure$u7d$$u7d$17h20eb43334038ea78E', symObjAddr: 0x308, symBinAddr: 0x12A8, symSize: 0x1A4 }
  - { offset: 0x13BD4, size: 0x8, addend: 0x0, symName: __ZN4pyo35impl_10trampoline6noargs17h416149b8c3c62e3dE, symObjAddr: 0x4AC, symBinAddr: 0x144C, symSize: 0x40 }
  - { offset: 0x14782, size: 0x8, addend: 0x0, symName: __ZN14opensheet_core7version9_PYO3_DEF17h875f74e19e6b6850E, symObjAddr: 0x50, symBinAddr: 0x703B0, symSize: 0x0 }
  - { offset: 0x15C9D, size: 0x8, addend: 0x0, symName: '__ZN4pyo35impl_9pymethods133_$LT$impl$u20$core..convert..From$LT$pyo3..impl_..pymethods..BoundRef$LT$T$GT$$GT$$u20$for$u20$$RF$pyo3..instance..Bound$LT$T$GT$$GT$4from17h9464fedff748989bE', symObjAddr: 0x0, symBinAddr: 0x148C, symSize: 0x14 }
  - { offset: 0x16F1C, size: 0x8, addend: 0x0, symName: '__ZN4pyo35impl_9pymethods133_$LT$impl$u20$core..convert..From$LT$pyo3..impl_..pymethods..BoundRef$LT$T$GT$$GT$$u20$for$u20$$RF$pyo3..instance..Bound$LT$T$GT$$GT$4from17h9464fedff748989bE', symObjAddr: 0x0, symBinAddr: 0x148C, symSize: 0x14 }
  - { offset: 0x17095, size: 0x8, addend: 0x0, symName: '__ZN4pyo38instance17Borrowed$LT$T$GT$4cast5inner17h7b97a512570bec66E', symObjAddr: 0x44, symBinAddr: 0x14D0, symSize: 0x7C }
  - { offset: 0x17677, size: 0x8, addend: 0x0, symName: '__ZN4pyo38instance17Borrowed$LT$T$GT$4cast17hcd64e0dda6d374f4E', symObjAddr: 0x14, symBinAddr: 0x14A0, symSize: 0x30 }
  - { offset: 0x176D7, size: 0x8, addend: 0x0, symName: __ZN4pyo38internal5state11AttachGuard6python17h52239c45a41a8d1eE, symObjAddr: 0x0, symBinAddr: 0x154C, symSize: 0x20 }
  - { offset: 0x1778D, size: 0x8, addend: 0x0, symName: __ZN4pyo38internal5state11AttachGuard6python17h52239c45a41a8d1eE, symObjAddr: 0x0, symBinAddr: 0x154C, symSize: 0x20 }
  - { offset: 0x177CD, size: 0x8, addend: 0x0, symName: __ZN4pyo35impl_10trampoline6noargs5inner17h45f6bac2959298f6E, symObjAddr: 0x0, symBinAddr: 0x156C, symSize: 0x30 }
  - { offset: 0x18C2B, size: 0x8, addend: 0x0, symName: __ZN4pyo35impl_10trampoline6noargs5inner17h45f6bac2959298f6E, symObjAddr: 0x0, symBinAddr: 0x156C, symSize: 0x30 }
  - { offset: 0x19577, size: 0x8, addend: 0x0, symName: '__ZN87_$LT$$BP$mut$u20$pyo3_ffi..object..PyObject$u20$as$u20$pyo3..ffi_ptr_ext..FfiPtrExt$GT$22assume_borrowed_or_err17h3a58ba9f7ca255d9E', symObjAddr: 0x0, symBinAddr: 0x159C, symSize: 0x24 }
  - { offset: 0x1A9F4, size: 0x8, addend: 0x0, symName: '__ZN87_$LT$$BP$mut$u20$pyo3_ffi..object..PyObject$u20$as$u20$pyo3..ffi_ptr_ext..FfiPtrExt$GT$22assume_borrowed_or_err17h3a58ba9f7ca255d9E', symObjAddr: 0x0, symBinAddr: 0x159C, symSize: 0x24 }
  - { offset: 0x1B39A, size: 0x8, addend: 0x0, symName: __ZN4pyo33err10cast_error9CastError3new17h777a8c08da17b514E, symObjAddr: 0x0, symBinAddr: 0x15C0, symSize: 0x1C }
  - { offset: 0x1CB25, size: 0x8, addend: 0x0, symName: __ZN4pyo33err10cast_error9CastError3new17h777a8c08da17b514E, symObjAddr: 0x0, symBinAddr: 0x15C0, symSize: 0x1C }
  - { offset: 0x1CB73, size: 0x8, addend: 0x0, symName: __ZN14opensheet_core20__pyfunction_version17hc9460a397b4cdb29E, symObjAddr: 0x0, symBinAddr: 0x15DC, symSize: 0x110 }
  - { offset: 0x1E1A5, size: 0x8, addend: 0x0, symName: __ZN14opensheet_core20__pyfunction_version17hc9460a397b4cdb29E, symObjAddr: 0x0, symBinAddr: 0x15DC, symSize: 0x110 }
  - { offset: 0x1E248, size: 0x8, addend: 0x0, symName: __ZN14opensheet_core7_native17h76d449916a3601c3E, symObjAddr: 0x110, symBinAddr: 0x16EC, symSize: 0x130 }
  - { offset: 0x1E2B1, size: 0x8, addend: 0x0, symName: __ZN14opensheet_core7version17h93afa24ca6ada3a8E, symObjAddr: 0x240, symBinAddr: 0x181C, symSize: 0x14 }
  - { offset: 0x1EC7B, size: 0x8, addend: 0x0, symName: __ZN4pyo36marker6Python15assume_attached17h733f074ae41d4bd7E, symObjAddr: 0x0, symBinAddr: 0x1830, symSize: 0x4 }
  - { offset: 0x1EDB7, size: 0x8, addend: 0x0, symName: __ZN4pyo36marker6Python15assume_attached17h733f074ae41d4bd7E, symObjAddr: 0x0, symBinAddr: 0x1830, symSize: 0x4 }
  - { offset: 0x1EDE8, size: 0x8, addend: 0x0, symName: __ZN4pyo35impl_5panic9PanicTrap3new17h85a7e22153b4a526E, symObjAddr: 0x0, symBinAddr: 0x1834, symSize: 0x18 }
  - { offset: 0x1EE77, size: 0x8, addend: 0x0, symName: __ZN4pyo35impl_5panic9PanicTrap3new17h85a7e22153b4a526E, symObjAddr: 0x0, symBinAddr: 0x1834, symSize: 0x18 }
  - { offset: 0x1EE99, size: 0x8, addend: 0x0, symName: __ZN4pyo35impl_5panic9PanicTrap6disarm17hab270cbca4c816acE, symObjAddr: 0x18, symBinAddr: 0x184C, symSize: 0x28 }
  - { offset: 0x1EED9, size: 0x8, addend: 0x0, symName: __ZN3std9panicking12catch_unwind7do_call17h1c2e99e45c9040fdE, symObjAddr: 0x0, symBinAddr: 0x1874, symSize: 0x94 }
  - { offset: 0x20FBA, size: 0x8, addend: 0x0, symName: __ZN3std9panicking12catch_unwind7do_call17h1c2e99e45c9040fdE, symObjAddr: 0x0, symBinAddr: 0x1874, symSize: 0x94 }
  - { offset: 0x210B5, size: 0x8, addend: 0x0, symName: __ZN3std9panicking12catch_unwind7do_call17hffcfc1938f8cea2fE, symObjAddr: 0x94, symBinAddr: 0x1908, symSize: 0x94 }
  - { offset: 0x211B0, size: 0x8, addend: 0x0, symName: __ZN3std9panicking12catch_unwind8do_catch17h7e7f314600a72b5cE, symObjAddr: 0x128, symBinAddr: 0x199C, symSize: 0x70 }
  - { offset: 0x21245, size: 0x8, addend: 0x0, symName: __ZN3std9panicking12catch_unwind8do_catch17hcd78700c5a247708E, symObjAddr: 0x198, symBinAddr: 0x1A0C, symSize: 0x70 }
  - { offset: 0x23093, size: 0x8, addend: 0x0, symName: '__ZN4core5array4iter94_$LT$impl$u20$core..iter..traits..collect..IntoIterator$u20$for$u20$$u5b$T$u3b$$u20$N$u5d$$GT$9into_iter17ha8fddfe5362a5deeE', symObjAddr: 0x6D60, symBinAddr: 0x34F0, symSize: 0x68 }
  - { offset: 0x25959, size: 0x8, addend: 0x0, symName: '__ZN50_$LT$T$u20$as$u20$core..convert..Into$LT$U$GT$$GT$4into17hc6a71d9cb981e2a8E', symObjAddr: 0xE618, symBinAddr: 0x5734, symSize: 0x24 }
  - { offset: 0x25999, size: 0x8, addend: 0x0, symName: '__ZN50_$LT$T$u20$as$u20$core..convert..Into$LT$U$GT$$GT$4into17he43ac1f9f6fac7dcE', symObjAddr: 0xE63C, symBinAddr: 0x5758, symSize: 0x24 }
  - { offset: 0x25A01, size: 0x8, addend: 0x0, symName: '__ZN103_$LT$pyo3..instance..Bound$LT$pyo3..types..any..PyAny$GT$$u20$as$u20$pyo3..types..any..PyAnyMethods$GT$2is17h6d6606571c80f295E', symObjAddr: 0x1A8, symBinAddr: 0x1A90, symSize: 0xA4 }
  - { offset: 0x25A6D, size: 0x8, addend: 0x0, symName: '__ZN103_$LT$pyo3..instance..Bound$LT$pyo3..types..any..PyAny$GT$$u20$as$u20$pyo3..types..any..PyAnyMethods$GT$3str17h57a1f406d9d3c992E', symObjAddr: 0xBCC, symBinAddr: 0x1B34, symSize: 0x5C }
  - { offset: 0x25A9B, size: 0x8, addend: 0x0, symName: '__ZN103_$LT$pyo3..instance..Bound$LT$pyo3..types..any..PyAny$GT$$u20$as$u20$pyo3..types..any..PyAnyMethods$GT$4repr17hfad898916c71f673E', symObjAddr: 0x10A8, symBinAddr: 0x1B90, symSize: 0x5C }
  - { offset: 0x25AC9, size: 0x8, addend: 0x0, symName: '__ZN103_$LT$pyo3..instance..Bound$LT$pyo3..types..any..PyAny$GT$$u20$as$u20$pyo3..types..any..PyAnyMethods$GT$5call017h8e575066af88bd94E', symObjAddr: 0x1104, symBinAddr: 0x1BEC, symSize: 0x4C }
  - { offset: 0x25AF7, size: 0x8, addend: 0x0, symName: '__ZN103_$LT$pyo3..instance..Bound$LT$pyo3..types..any..PyAny$GT$$u20$as$u20$pyo3..types..any..PyAnyMethods$GT$7getattr17h7bb6bd659f0c8a28E', symObjAddr: 0x1680, symBinAddr: 0x1C38, symSize: 0x148 }
  - { offset: 0x25B7D, size: 0x8, addend: 0x0, symName: '__ZN103_$LT$pyo3..instance..Bound$LT$pyo3..types..any..PyAny$GT$$u20$as$u20$pyo3..types..any..PyAnyMethods$GT$7is_none17h0060fec330749b53E', symObjAddr: 0x1930, symBinAddr: 0x1D80, symSize: 0x4C }
  - { offset: 0x25BD1, size: 0x8, addend: 0x0, symName: '__ZN103_$LT$pyo3..instance..Bound$LT$pyo3..types..any..PyAny$GT$$u20$as$u20$pyo3..types..any..PyAnyMethods$GT$7setattr17h16e7d6b488ea0891E', symObjAddr: 0x197C, symBinAddr: 0x1DCC, symSize: 0x234 }
  - { offset: 0x25C9E, size: 0x8, addend: 0x0, symName: '__ZN103_$LT$pyo3..instance..Bound$LT$pyo3..types..any..PyAny$GT$$u20$as$u20$pyo3..types..any..PyAnyMethods$GT$7setattr17ha970665a7d387ed6E', symObjAddr: 0x1BB0, symBinAddr: 0x2000, symSize: 0x234 }
  - { offset: 0x25D6B, size: 0x8, addend: 0x0, symName: '__ZN103_$LT$pyo3..instance..Bound$LT$pyo3..types..any..PyAny$GT$$u20$as$u20$pyo3..types..any..PyAnyMethods$GT$8get_type17hc5c8633c78552ab3E', symObjAddr: 0x2090, symBinAddr: 0x2234, symSize: 0x38 }
  - { offset: 0x25E3E, size: 0x8, addend: 0x0, symName: '__ZN107_$LT$pyo3..instance..Bound$LT$pyo3..types..list..PyList$GT$$u20$as$u20$pyo3..types..list..PyListMethods$GT$6append17h55fd6a0bd12a674bE', symObjAddr: 0x2F10, symBinAddr: 0x2290, symSize: 0x14C }
  - { offset: 0x25ED5, size: 0x8, addend: 0x0, symName: '__ZN111_$LT$pyo3..instance..Bound$LT$pyo3..types..bytes..PyBytes$GT$$u20$as$u20$pyo3..types..bytes..PyBytesMethods$GT$8as_bytes17hf8a545d51d0e1572E', symObjAddr: 0x31FC, symBinAddr: 0x23DC, symSize: 0x28 }
  - { offset: 0x25F73, size: 0x8, addend: 0x0, symName: '__ZN111_$LT$pyo3..instance..Bound$LT$pyo3..types..tuple..PyTuple$GT$$u20$as$u20$pyo3..types..tuple..PyTupleMethods$GT$3len17hb7b61e813c657411E', symObjAddr: 0x37B0, symBinAddr: 0x2404, symSize: 0x2C }
  - { offset: 0x25F9F, size: 0x8, addend: 0x0, symName: '__ZN111_$LT$pyo3..instance..Bound$LT$pyo3..types..tuple..PyTuple$GT$$u20$as$u20$pyo3..types..tuple..PyTupleMethods$GT$4iter17hde4915de903695f2E', symObjAddr: 0x37DC, symBinAddr: 0x2430, symSize: 0x30 }
  - { offset: 0x260B7, size: 0x8, addend: 0x0, symName: '__ZN115_$LT$pyo3..instance..Bound$LT$pyo3..types..module..PyModule$GT$$u20$as$u20$pyo3..types..module..PyModuleMethods$GT$12add_function17h781ecaab90aac7b2E', symObjAddr: 0x3B54, symBinAddr: 0x2460, symSize: 0x1F8 }
  - { offset: 0x2616A, size: 0x8, addend: 0x0, symName: '__ZN115_$LT$pyo3..instance..Bound$LT$pyo3..types..module..PyModule$GT$$u20$as$u20$pyo3..types..module..PyModuleMethods$GT$3add17hb92f2854cdb6a231E', symObjAddr: 0x44D4, symBinAddr: 0x2658, symSize: 0x280 }
  - { offset: 0x26237, size: 0x8, addend: 0x0, symName: '__ZN115_$LT$pyo3..instance..Bound$LT$pyo3..types..module..PyModule$GT$$u20$as$u20$pyo3..types..module..PyModuleMethods$GT$4name17hbfd942ccd7639f36E', symObjAddr: 0x47A8, symBinAddr: 0x28D8, symSize: 0x5C }
  - { offset: 0x26265, size: 0x8, addend: 0x0, symName: '__ZN115_$LT$pyo3..instance..Bound$LT$pyo3..types..module..PyModule$GT$$u20$as$u20$pyo3..types..module..PyModuleMethods$GT$5index17h91e81562485b571eE', symObjAddr: 0x4804, symBinAddr: 0x2934, symSize: 0x25C }
  - { offset: 0x26338, size: 0x8, addend: 0x0, symName: '__ZN115_$LT$pyo3..instance..Bound$LT$pyo3..types..string..PyString$GT$$u20$as$u20$pyo3..types..string..PyStringMethods$GT$15to_string_lossy17h5d06a5a1eb4a5a54E', symObjAddr: 0x4B30, symBinAddr: 0x2B90, symSize: 0x30 }
  - { offset: 0x26366, size: 0x8, addend: 0x0, symName: '__ZN115_$LT$pyo3..instance..Bound$LT$pyo3..types..string..PyString$GT$$u20$as$u20$pyo3..types..string..PyStringMethods$GT$6to_cow17hc77bda27722b177aE', symObjAddr: 0x4B90, symBinAddr: 0x2BC0, symSize: 0x30 }
  - { offset: 0x26485, size: 0x8, addend: 0x0, symName: '__ZN119_$LT$pyo3..instance..Bound$LT$pyo3..types..typeobject..PyType$GT$$u20$as$u20$pyo3..types..typeobject..PyTypeMethods$GT$11as_type_ptr17h57f4d9ad95ed5c8fE', symObjAddr: 0x53DC, symBinAddr: 0x2BF0, symSize: 0x24 }
  - { offset: 0x264B1, size: 0x8, addend: 0x0, symName: '__ZN119_$LT$pyo3..instance..Bound$LT$pyo3..types..typeobject..PyType$GT$$u20$as$u20$pyo3..types..typeobject..PyTypeMethods$GT$4name17h742a4b33e255c933E', symObjAddr: 0x5A84, symBinAddr: 0x2C14, symSize: 0xE0 }
  - { offset: 0x2651A, size: 0x8, addend: 0x0, symName: '__ZN119_$LT$pyo3..instance..Bound$LT$pyo3..types..typeobject..PyType$GT$$u20$as$u20$pyo3..types..typeobject..PyTypeMethods$GT$8qualname17h164b2c5e0e41a8c2E', symObjAddr: 0x5D50, symBinAddr: 0x2CF4, symSize: 0xE0 }
  - { offset: 0x265F5, size: 0x8, addend: 0x0, symName: '__ZN127_$LT$pyo3..instance..Bound$LT$pyo3..types..traceback..PyTraceback$GT$$u20$as$u20$pyo3..types..traceback..PyTracebackMethods$GT$6format17h215157ff503cbe4cE', symObjAddr: 0x60D8, symBinAddr: 0x2DD4, symSize: 0x664 }
  - { offset: 0x26929, size: 0x8, addend: 0x0, symName: '__ZN105_$LT$pyo3..instance..Py$LT$T$GT$$u20$as$u20$core..convert..From$LT$pyo3..instance..Bound$LT$T$GT$$GT$$GT$4from17h84df5f90eb2ccf06E', symObjAddr: 0x237C, symBinAddr: 0x226C, symSize: 0x24 }
  - { offset: 0x26966, size: 0x8, addend: 0x0, symName: '__ZN127_$LT$pyo3..instance..Py$LT$pyo3..types..any..PyAny$GT$$u20$as$u20$core..convert..From$LT$pyo3..instance..Bound$LT$T$GT$$GT$$GT$4from17h2d69941e980961d2E', symObjAddr: 0x673C, symBinAddr: 0x3438, symSize: 0x28 }
  - { offset: 0x269A3, size: 0x8, addend: 0x0, symName: '__ZN128_$LT$pyo3..instance..Bound$LT$T$GT$$u20$as$u20$core..convert..AsRef$LT$pyo3..instance..Py$LT$pyo3..types..any..PyAny$GT$$GT$$GT$6as_ref17h26210ee0bf2ca730E', symObjAddr: 0x6764, symBinAddr: 0x3460, symSize: 0x28 }
  - { offset: 0x294F8, size: 0x8, addend: 0x0, symName: __ZN4pyo38instance13panic_on_null17h584324952aff3d4cE, symObjAddr: 0xA87C, symBinAddr: 0x45F44, symSize: 0x88 }
  - { offset: 0x2954F, size: 0x8, addend: 0x0, symName: __ZN4pyo38instance13python_format17hd595181f82912ce2E, symObjAddr: 0xA904, symBinAddr: 0x4204, symSize: 0x2F8 }
  - { offset: 0x2A7BC, size: 0x8, addend: 0x0, symName: '__ZN4pyo38instance14Bound$LT$T$GT$4cast5inner17h57ece9050c092f0dE', symObjAddr: 0xB900, symBinAddr: 0x4934, symSize: 0x84 }
  - { offset: 0x2A7F1, size: 0x8, addend: 0x0, symName: '__ZN4pyo38instance14Bound$LT$T$GT$4cast5inner17h71e6a51cd5f15404E', symObjAddr: 0xB984, symBinAddr: 0x49B8, symSize: 0x84 }
  - { offset: 0x2A826, size: 0x8, addend: 0x0, symName: '__ZN4pyo38instance14Bound$LT$T$GT$4cast5inner17h8090bff2a61d4e5bE', symObjAddr: 0xBA08, symBinAddr: 0x4A3C, symSize: 0x84 }
  - { offset: 0x2A861, size: 0x8, addend: 0x0, symName: '__ZN4pyo38instance14Bound$LT$T$GT$9cast_into5inner17h05d3d0f0ae98242eE', symObjAddr: 0xCB74, symBinAddr: 0x5134, symSize: 0xFC }
  - { offset: 0x2A8B3, size: 0x8, addend: 0x0, symName: '__ZN4pyo38instance14Bound$LT$T$GT$9cast_into5inner17h1b7579400fe89c20E', symObjAddr: 0xCC70, symBinAddr: 0x5230, symSize: 0xFC }
  - { offset: 0x2AA93, size: 0x8, addend: 0x0, symName: '__ZN4pyo38instance36Bound$LT$pyo3..types..any..PyAny$GT$14from_owned_ptr28_$u7b$$u7b$closure$u7d$$u7d$17h3383755e0ba4d76cE', symObjAddr: 0xE184, symBinAddr: 0x5504, symSize: 0x1C }
  - { offset: 0x2AAE6, size: 0x8, addend: 0x0, symName: '__ZN4pyo38instance36Bound$LT$pyo3..types..any..PyAny$GT$21from_owned_ptr_or_opt28_$u7b$$u7b$closure$u7d$$u7d$17hf815914a67855714E', symObjAddr: 0xE2D8, symBinAddr: 0x5620, symSize: 0x38 }
  - { offset: 0x2AB4E, size: 0x8, addend: 0x0, symName: '__ZN4pyo38instance39Borrowed$LT$pyo3..types..any..PyAny$GT$15from_ptr_or_err28_$u7b$$u7b$closure$u7d$$u7d$17h6509da3f04187ce2E', symObjAddr: 0xE394, symBinAddr: 0x566C, symSize: 0x58 }
  - { offset: 0x2AB88, size: 0x8, addend: 0x0, symName: '__ZN4pyo38instance39Borrowed$LT$pyo3..types..any..PyAny$GT$15from_ptr_or_err28_$u7b$$u7b$closure$u7d$$u7d$17he5cff60a53795849E', symObjAddr: 0xE3EC, symBinAddr: 0x56C4, symSize: 0x40 }
  - { offset: 0x2ABFE, size: 0x8, addend: 0x0, symName: '__ZN67_$LT$pyo3..instance..Bound$LT$T$GT$$u20$as$u20$core..fmt..Debug$GT$3fmt17h662db97862dd26dfE', symObjAddr: 0xE674, symBinAddr: 0x577C, symSize: 0x54 }
  - { offset: 0x2AC62, size: 0x8, addend: 0x0, symName: '__ZN67_$LT$pyo3..instance..Bound$LT$T$GT$$u20$as$u20$core..fmt..Debug$GT$3fmt17h9c0af90ad6d9ac06E', symObjAddr: 0xE71C, symBinAddr: 0x57D0, symSize: 0x54 }
  - { offset: 0x2ACC6, size: 0x8, addend: 0x0, symName: '__ZN67_$LT$pyo3..instance..Bound$LT$T$GT$$u20$as$u20$core..fmt..Debug$GT$3fmt17ha83433fb8d9fd734E', symObjAddr: 0xE770, symBinAddr: 0x5824, symSize: 0x54 }
  - { offset: 0x2AD30, size: 0x8, addend: 0x0, symName: '__ZN69_$LT$pyo3..instance..Bound$LT$T$GT$$u20$as$u20$core..clone..Clone$GT$5clone17h3a47063bd8196595E', symObjAddr: 0xE82C, symBinAddr: 0x5878, symSize: 0x34 }
  - { offset: 0x2AD67, size: 0x8, addend: 0x0, symName: '__ZN69_$LT$pyo3..instance..Bound$LT$T$GT$$u20$as$u20$core..clone..Clone$GT$5clone17h4a09f6a5bde9ececE', symObjAddr: 0xE860, symBinAddr: 0x58AC, symSize: 0x34 }
  - { offset: 0x2AD9E, size: 0x8, addend: 0x0, symName: '__ZN69_$LT$pyo3..instance..Bound$LT$T$GT$$u20$as$u20$core..clone..Clone$GT$5clone17h81605a8d12833539E', symObjAddr: 0xE8FC, symBinAddr: 0x58E0, symSize: 0x34 }
  - { offset: 0x2ADD5, size: 0x8, addend: 0x0, symName: '__ZN69_$LT$pyo3..instance..Bound$LT$T$GT$$u20$as$u20$core..clone..Clone$GT$5clone17hb34acd73d3aebc01E', symObjAddr: 0xE998, symBinAddr: 0x5914, symSize: 0x34 }
  - { offset: 0x2AE12, size: 0x8, addend: 0x0, symName: '__ZN69_$LT$pyo3..instance..Bound$LT$T$GT$$u20$as$u20$core..fmt..Display$GT$3fmt17h00d25b950c5ab9d4E', symObjAddr: 0xEA68, symBinAddr: 0x5948, symSize: 0x54 }
  - { offset: 0x2AE76, size: 0x8, addend: 0x0, symName: '__ZN69_$LT$pyo3..instance..Bound$LT$T$GT$$u20$as$u20$core..fmt..Display$GT$3fmt17h14444e981f6b5941E', symObjAddr: 0xEABC, symBinAddr: 0x599C, symSize: 0x54 }
  - { offset: 0x2AEE0, size: 0x8, addend: 0x0, symName: '__ZN69_$LT$pyo3..instance..Py$LT$T$GT$$u20$as$u20$core..ops..drop..Drop$GT$4drop17h5153a88e78cd8169E', symObjAddr: 0xEBB8, symBinAddr: 0x59F0, symSize: 0x28 }
  - { offset: 0x2AF13, size: 0x8, addend: 0x0, symName: '__ZN69_$LT$pyo3..instance..Py$LT$T$GT$$u20$as$u20$core..ops..drop..Drop$GT$4drop17h7dc0cf06d2595f14E', symObjAddr: 0xEBE0, symBinAddr: 0x5A18, symSize: 0x28 }
  - { offset: 0x2AF46, size: 0x8, addend: 0x0, symName: '__ZN69_$LT$pyo3..instance..Py$LT$T$GT$$u20$as$u20$core..ops..drop..Drop$GT$4drop17h8fcca9d380096057E', symObjAddr: 0xEC08, symBinAddr: 0x5A40, symSize: 0x28 }
  - { offset: 0x2AF79, size: 0x8, addend: 0x0, symName: '__ZN69_$LT$pyo3..instance..Py$LT$T$GT$$u20$as$u20$core..ops..drop..Drop$GT$4drop17h9ccfe24a5de72511E', symObjAddr: 0xEC58, symBinAddr: 0x5A68, symSize: 0x28 }
  - { offset: 0x2AFAC, size: 0x8, addend: 0x0, symName: '__ZN69_$LT$pyo3..instance..Py$LT$T$GT$$u20$as$u20$core..ops..drop..Drop$GT$4drop17ha80f7a3402675281E', symObjAddr: 0xEC80, symBinAddr: 0x5A90, symSize: 0x28 }
  - { offset: 0x2AFE4, size: 0x8, addend: 0x0, symName: '__ZN69_$LT$pyo3..instance..Py$LT$T$GT$$u20$as$u20$core..ops..drop..Drop$GT$4drop5inner17h31c0ee995de73c14E', symObjAddr: 0xECD0, symBinAddr: 0x5AB8, symSize: 0x178 }
  - { offset: 0x2B041, size: 0x8, addend: 0x0, symName: '__ZN69_$LT$pyo3..instance..Py$LT$T$GT$$u20$as$u20$core..ops..drop..Drop$GT$4drop9drop_slow17haefdd474e74dcf0aE', symObjAddr: 0xEE48, symBinAddr: 0x45FCC, symSize: 0x24 }
  - { offset: 0x2B072, size: 0x8, addend: 0x0, symName: '__ZN72_$LT$pyo3..instance..Bound$LT$T$GT$$u20$as$u20$core..ops..drop..Drop$GT$4drop17h2cd189e3e462f93eE', symObjAddr: 0xEEA0, symBinAddr: 0x5C30, symSize: 0x144 }
  - { offset: 0x2B0C3, size: 0x8, addend: 0x0, symName: '__ZN72_$LT$pyo3..instance..Bound$LT$T$GT$$u20$as$u20$core..ops..drop..Drop$GT$4drop17h3874f7254881acd5E', symObjAddr: 0xEFE4, symBinAddr: 0x5D74, symSize: 0x144 }
  - { offset: 0x2B114, size: 0x8, addend: 0x0, symName: '__ZN72_$LT$pyo3..instance..Bound$LT$T$GT$$u20$as$u20$core..ops..drop..Drop$GT$4drop17h3f45ac6b1f7c64e4E', symObjAddr: 0xF26C, symBinAddr: 0x5EB8, symSize: 0x144 }
  - { offset: 0x2B165, size: 0x8, addend: 0x0, symName: '__ZN72_$LT$pyo3..instance..Bound$LT$T$GT$$u20$as$u20$core..ops..drop..Drop$GT$4drop17h44824147930a5392E', symObjAddr: 0xF3B0, symBinAddr: 0x5FFC, symSize: 0x144 }
  - { offset: 0x2B1B6, size: 0x8, addend: 0x0, symName: '__ZN72_$LT$pyo3..instance..Bound$LT$T$GT$$u20$as$u20$core..ops..drop..Drop$GT$4drop17h6d3d9416edf7f923E', symObjAddr: 0xF638, symBinAddr: 0x6140, symSize: 0x144 }
  - { offset: 0x2B207, size: 0x8, addend: 0x0, symName: '__ZN72_$LT$pyo3..instance..Bound$LT$T$GT$$u20$as$u20$core..ops..drop..Drop$GT$4drop17hb1250c2e4bc64fffE', symObjAddr: 0xFC8C, symBinAddr: 0x6284, symSize: 0x144 }
  - { offset: 0x2B258, size: 0x8, addend: 0x0, symName: '__ZN72_$LT$pyo3..instance..Bound$LT$T$GT$$u20$as$u20$core..ops..drop..Drop$GT$4drop17hc558c11385124ac6E', symObjAddr: 0xFDD0, symBinAddr: 0x63C8, symSize: 0x144 }
  - { offset: 0x2B2A9, size: 0x8, addend: 0x0, symName: '__ZN72_$LT$pyo3..instance..Bound$LT$T$GT$$u20$as$u20$core..ops..drop..Drop$GT$4drop17hd0750e795c184895E', symObjAddr: 0x1019C, symBinAddr: 0x650C, symSize: 0x144 }
  - { offset: 0x2B2FA, size: 0x8, addend: 0x0, symName: '__ZN72_$LT$pyo3..instance..Bound$LT$T$GT$$u20$as$u20$core..ops..drop..Drop$GT$4drop17hd162344445d909a6E', symObjAddr: 0x102E0, symBinAddr: 0x6650, symSize: 0x144 }
  - { offset: 0x2B34B, size: 0x8, addend: 0x0, symName: '__ZN72_$LT$pyo3..instance..Bound$LT$T$GT$$u20$as$u20$core..ops..drop..Drop$GT$4drop17he7f2e3d7e890259eE', symObjAddr: 0x10568, symBinAddr: 0x6794, symSize: 0x144 }
  - { offset: 0x2B3A2, size: 0x8, addend: 0x0, symName: '__ZN74_$LT$pyo3..instance..Bound$LT$T$GT$$u20$as$u20$core..ops..deref..Deref$GT$5deref17h2a5278067f79ac16E', symObjAddr: 0x10814, symBinAddr: 0x68D8, symSize: 0x24 }
  - { offset: 0x2B3D9, size: 0x8, addend: 0x0, symName: '__ZN74_$LT$pyo3..instance..Bound$LT$T$GT$$u20$as$u20$core..ops..deref..Deref$GT$5deref17h5356ca7ae4546efcE', symObjAddr: 0x10880, symBinAddr: 0x68FC, symSize: 0x24 }
  - { offset: 0x2B410, size: 0x8, addend: 0x0, symName: '__ZN74_$LT$pyo3..instance..Bound$LT$T$GT$$u20$as$u20$core..ops..deref..Deref$GT$5deref17h551c939571e6a752E', symObjAddr: 0x108A4, symBinAddr: 0x6920, symSize: 0x24 }
  - { offset: 0x2B447, size: 0x8, addend: 0x0, symName: '__ZN74_$LT$pyo3..instance..Bound$LT$T$GT$$u20$as$u20$core..ops..deref..Deref$GT$5deref17h7634c01f7c7f0334E', symObjAddr: 0x108EC, symBinAddr: 0x6944, symSize: 0x24 }
  - { offset: 0x2B47E, size: 0x8, addend: 0x0, symName: '__ZN74_$LT$pyo3..instance..Bound$LT$T$GT$$u20$as$u20$core..ops..deref..Deref$GT$5deref17hd09d7bdd83aca0fbE', symObjAddr: 0x109A0, symBinAddr: 0x6968, symSize: 0x24 }
  - { offset: 0x2B4BB, size: 0x8, addend: 0x0, symName: '__ZN77_$LT$pyo3..instance..Borrowed$LT$T$GT$$u20$as$u20$core..ops..deref..Deref$GT$5deref17h2cbd5839261b569fE', symObjAddr: 0x10A38, symBinAddr: 0x698C, symSize: 0x28 }
  - { offset: 0x2B4F2, size: 0x8, addend: 0x0, symName: '__ZN77_$LT$pyo3..instance..Borrowed$LT$T$GT$$u20$as$u20$core..ops..deref..Deref$GT$5deref17h45598c9a53525f7dE', symObjAddr: 0x10B28, symBinAddr: 0x69B4, symSize: 0x28 }
  - { offset: 0x2B529, size: 0x8, addend: 0x0, symName: '__ZN77_$LT$pyo3..instance..Borrowed$LT$T$GT$$u20$as$u20$core..ops..deref..Deref$GT$5deref17h4d29980a90bb4c35E', symObjAddr: 0x10B50, symBinAddr: 0x69DC, symSize: 0x28 }
  - { offset: 0x2B560, size: 0x8, addend: 0x0, symName: '__ZN77_$LT$pyo3..instance..Borrowed$LT$T$GT$$u20$as$u20$core..ops..deref..Deref$GT$5deref17h5ba187e40f26027eE', symObjAddr: 0x10B78, symBinAddr: 0x6A04, symSize: 0x28 }
  - { offset: 0x2B597, size: 0x8, addend: 0x0, symName: '__ZN77_$LT$pyo3..instance..Borrowed$LT$T$GT$$u20$as$u20$core..ops..deref..Deref$GT$5deref17hee5fe884c48c9ee9E', symObjAddr: 0x10C40, symBinAddr: 0x6A2C, symSize: 0x28 }
  - { offset: 0x2B5D4, size: 0x8, addend: 0x0, symName: '__ZN87_$LT$pyo3..instance..Bound$LT$T$GT$$u20$as$u20$pyo3..instance..BoundObject$LT$T$GT$$GT$10into_bound17h6180aa158aec9adeE', symObjAddr: 0x10E3C, symBinAddr: 0x6AEC, symSize: 0x14 }
  - { offset: 0x2B60B, size: 0x8, addend: 0x0, symName: '__ZN87_$LT$pyo3..instance..Bound$LT$T$GT$$u20$as$u20$pyo3..instance..BoundObject$LT$T$GT$$GT$11as_borrowed17h445ebed5e3b3b2a3E', symObjAddr: 0x10E50, symBinAddr: 0x6B00, symSize: 0x24 }
  - { offset: 0x2B642, size: 0x8, addend: 0x0, symName: '__ZN87_$LT$pyo3..instance..Bound$LT$T$GT$$u20$as$u20$pyo3..instance..BoundObject$LT$T$GT$$GT$11as_borrowed17h98a8170e6f659180E', symObjAddr: 0x10E74, symBinAddr: 0x6B24, symSize: 0x24 }
  - { offset: 0x2B679, size: 0x8, addend: 0x0, symName: '__ZN87_$LT$pyo3..instance..Bound$LT$T$GT$$u20$as$u20$pyo3..instance..BoundObject$LT$T$GT$$GT$6unbind17h4d6d325629ddbbf1E', symObjAddr: 0x10EBC, symBinAddr: 0x6B48, symSize: 0x24 }
  - { offset: 0x2B6B0, size: 0x8, addend: 0x0, symName: '__ZN87_$LT$pyo3..instance..Bound$LT$T$GT$$u20$as$u20$pyo3..instance..BoundObject$LT$T$GT$$GT$8into_any17h028d6dd48383aaf2E', symObjAddr: 0x10EE0, symBinAddr: 0x6B6C, symSize: 0x24 }
  - { offset: 0x2B6E7, size: 0x8, addend: 0x0, symName: '__ZN87_$LT$pyo3..instance..Bound$LT$T$GT$$u20$as$u20$pyo3..instance..BoundObject$LT$T$GT$$GT$8into_any17hdada979e4f3e7c79E', symObjAddr: 0x10FB8, symBinAddr: 0x6B90, symSize: 0x24 }
  - { offset: 0x2B71E, size: 0x8, addend: 0x0, symName: '__ZN87_$LT$pyo3..instance..Bound$LT$T$GT$$u20$as$u20$pyo3..instance..BoundObject$LT$T$GT$$GT$8into_any17hf00311f9bf65ef0cE', symObjAddr: 0x10FDC, symBinAddr: 0x6BB4, symSize: 0x24 }
  - { offset: 0x2B75B, size: 0x8, addend: 0x0, symName: '__ZN90_$LT$pyo3..instance..Borrowed$LT$T$GT$$u20$as$u20$pyo3..instance..BoundObject$LT$T$GT$$GT$11as_borrowed17h1bcfb451f219e594E', symObjAddr: 0x1102C, symBinAddr: 0x6BD8, symSize: 0x18 }
  - { offset: 0x2B792, size: 0x8, addend: 0x0, symName: '__ZN90_$LT$pyo3..instance..Borrowed$LT$T$GT$$u20$as$u20$pyo3..instance..BoundObject$LT$T$GT$$GT$11as_borrowed17ha58ace4ad7fa4084E', symObjAddr: 0x11044, symBinAddr: 0x6BF0, symSize: 0x18 }
  - { offset: 0x2B7C9, size: 0x8, addend: 0x0, symName: '__ZN90_$LT$pyo3..instance..Borrowed$LT$T$GT$$u20$as$u20$pyo3..instance..BoundObject$LT$T$GT$$GT$6as_ptr17h28c990b36d883068E', symObjAddr: 0x1105C, symBinAddr: 0x6C08, symSize: 0x28 }
  - { offset: 0x2B800, size: 0x8, addend: 0x0, symName: '__ZN90_$LT$pyo3..instance..Borrowed$LT$T$GT$$u20$as$u20$pyo3..instance..BoundObject$LT$T$GT$$GT$8into_any17h6bb2261e734862d3E', symObjAddr: 0x110CC, symBinAddr: 0x6C30, symSize: 0x24 }
  - { offset: 0x2B837, size: 0x8, addend: 0x0, symName: '__ZN90_$LT$pyo3..instance..Borrowed$LT$T$GT$$u20$as$u20$pyo3..instance..BoundObject$LT$T$GT$$GT$8into_any17hc9a8d6b62314ad64E', symObjAddr: 0x1115C, symBinAddr: 0x6C54, symSize: 0x24 }
  - { offset: 0x2B86E, size: 0x8, addend: 0x0, symName: '__ZN90_$LT$pyo3..instance..Borrowed$LT$T$GT$$u20$as$u20$pyo3..instance..BoundObject$LT$T$GT$$GT$8into_any17hdea94a297003b72aE', symObjAddr: 0x11180, symBinAddr: 0x6C78, symSize: 0x24 }
  - { offset: 0x2B8B6, size: 0x8, addend: 0x0, symName: '__ZN196_$LT$$RF$pyo3..instance..Bound$LT$pyo3..types..module..PyModule$GT$$u20$as$u20$pyo3..impl_..pyfunction..WrapPyFunctionArg$LT$pyo3..instance..Bound$LT$pyo3..types..function..PyCFunction$GT$$GT$$GT$15wrap_pyfunction17h77407c99c2c041caE', symObjAddr: 0x6AE4, symBinAddr: 0x3488, symSize: 0x44 }
  - { offset: 0x2BB04, size: 0x8, addend: 0x0, symName: __ZN4pyo310conversion15IntoPyObjectExt22into_pyobject_or_pyerr17h07455934ac7ddadaE, symObjAddr: 0x6F08, symBinAddr: 0x3558, symSize: 0x48 }
  - { offset: 0x2BB74, size: 0x8, addend: 0x0, symName: __ZN4pyo310conversion15IntoPyObjectExt22into_pyobject_or_pyerr17h6586271ed8f30161E, symObjAddr: 0x6FE0, symBinAddr: 0x35A0, symSize: 0x48 }
  - { offset: 0x2BBE4, size: 0x8, addend: 0x0, symName: __ZN4pyo310conversion15IntoPyObjectExt22into_pyobject_or_pyerr17h707eed01d7cc52ccE, symObjAddr: 0x7028, symBinAddr: 0x35E8, symSize: 0x48 }
  - { offset: 0x2BC54, size: 0x8, addend: 0x0, symName: __ZN4pyo310conversion15IntoPyObjectExt22into_pyobject_or_pyerr17hc2cf4e4ea3e81869E, symObjAddr: 0x7190, symBinAddr: 0x3630, symSize: 0x48 }
  - { offset: 0x2BCC4, size: 0x8, addend: 0x0, symName: __ZN4pyo310conversion15IntoPyObjectExt22into_pyobject_or_pyerr17he61c4abbae6bd751E, symObjAddr: 0x71D8, symBinAddr: 0x3678, symSize: 0x48 }
  - { offset: 0x2BD34, size: 0x8, addend: 0x0, symName: __ZN4pyo310conversion15IntoPyObjectExt22into_pyobject_or_pyerr17hec24a25a2aab3bb4E, symObjAddr: 0x7220, symBinAddr: 0x36C0, symSize: 0x48 }
  - { offset: 0x2BDAA, size: 0x8, addend: 0x0, symName: '__ZN81_$LT$pyo3..instance..Bound$LT$T$GT$$u20$as$u20$pyo3..conversion..IntoPyObject$GT$13into_pyobject17h87cfdd5f9f2e6d95E', symObjAddr: 0x10C8C, symBinAddr: 0x6A54, symSize: 0x14 }
  - { offset: 0x2BDF8, size: 0x8, addend: 0x0, symName: '__ZN81_$LT$pyo3..instance..Bound$LT$T$GT$$u20$as$u20$pyo3..conversion..IntoPyObject$GT$13into_pyobject17ha9a1e52f8b005a6cE', symObjAddr: 0x10CA0, symBinAddr: 0x6A68, symSize: 0x14 }
  - { offset: 0x2BE4C, size: 0x8, addend: 0x0, symName: '__ZN84_$LT$pyo3..instance..Borrowed$LT$T$GT$$u20$as$u20$pyo3..conversion..IntoPyObject$GT$13into_pyobject17h6c5b716b82d32cfaE', symObjAddr: 0x10D18, symBinAddr: 0x6A7C, symSize: 0x14 }
  - { offset: 0x2BE9A, size: 0x8, addend: 0x0, symName: '__ZN84_$LT$pyo3..instance..Borrowed$LT$T$GT$$u20$as$u20$pyo3..conversion..IntoPyObject$GT$13into_pyobject17h925ef108f5148bddE', symObjAddr: 0x10D2C, symBinAddr: 0x6A90, symSize: 0x14 }
  - { offset: 0x2BEEE, size: 0x8, addend: 0x0, symName: '__ZN85_$LT$$RF$pyo3..instance..Bound$LT$T$GT$$u20$as$u20$pyo3..conversion..IntoPyObject$GT$13into_pyobject17h058a7c17c326d039E', symObjAddr: 0x10D40, symBinAddr: 0x6AA4, symSize: 0x24 }
  - { offset: 0x2BF3C, size: 0x8, addend: 0x0, symName: '__ZN85_$LT$$RF$pyo3..instance..Bound$LT$T$GT$$u20$as$u20$pyo3..conversion..IntoPyObject$GT$13into_pyobject17h9e3ff03ffe54a8caE', symObjAddr: 0x10DF4, symBinAddr: 0x6AC8, symSize: 0x24 }
  - { offset: 0x2C4EE, size: 0x8, addend: 0x0, symName: '__ZN44_$LT$T$u20$as$u20$alloc..borrow..ToOwned$GT$8to_owned17h876fa88af71c1ca1E', symObjAddr: 0x6C08, symBinAddr: 0x34CC, symSize: 0x24 }
  - { offset: 0x2C64D, size: 0x8, addend: 0x0, symName: '__ZN4pyo35types5bytes77_$LT$impl$u20$pyo3..instance..Borrowed$LT$pyo3..types..bytes..PyBytes$GT$$GT$8as_bytes17hbd4122849d33bb31E', symObjAddr: 0x73F8, symBinAddr: 0x3708, symSize: 0x90 }
  - { offset: 0x2C90F, size: 0x8, addend: 0x0, symName: '__ZN4pyo35types5tuple77_$LT$impl$u20$pyo3..instance..Borrowed$LT$pyo3..types..tuple..PyTuple$GT$$GT$27get_borrowed_item_unchecked17h1ce7bec32b3e5fcaE', symObjAddr: 0x7A74, symBinAddr: 0x3798, symSize: 0x58 }
  - { offset: 0x2C96C, size: 0x8, addend: 0x0, symName: '__ZN4pyo35types6string79_$LT$impl$u20$pyo3..instance..Borrowed$LT$pyo3..types..string..PyString$GT$$GT$15to_string_lossy17h7e4c2c6ac8848d26E', symObjAddr: 0x7BF0, symBinAddr: 0x37F0, symSize: 0x174 }
  - { offset: 0x2CA3D, size: 0x8, addend: 0x0, symName: '__ZN4pyo35types6string79_$LT$impl$u20$pyo3..instance..Borrowed$LT$pyo3..types..string..PyString$GT$$GT$6to_cow17h737485c80195382bE', symObjAddr: 0x7F34, symBinAddr: 0x3964, symSize: 0x3C }
  - { offset: 0x2CA60, size: 0x8, addend: 0x0, symName: '__ZN4pyo35types6string79_$LT$impl$u20$pyo3..instance..Borrowed$LT$pyo3..types..string..PyString$GT$$GT$6to_str17hc7cb276df9d15b56E', symObjAddr: 0x7F70, symBinAddr: 0x39A0, symSize: 0xD0 }
  - { offset: 0x2CB04, size: 0x8, addend: 0x0, symName: '__ZN4pyo38instance11Py$LT$T$GT$10into_bound17h5a8b2ee2656cb883E', symObjAddr: 0x90E4, symBinAddr: 0x3A70, symSize: 0x1C }
  - { offset: 0x2CBB5, size: 0x8, addend: 0x0, symName: '__ZN4pyo38instance11Py$LT$T$GT$4bind17h1daa90391a7ee043E', symObjAddr: 0x91F0, symBinAddr: 0x3A8C, symSize: 0x38 }
  - { offset: 0x2CC6A, size: 0x8, addend: 0x0, symName: '__ZN4pyo38instance11Py$LT$T$GT$4bind17h3b7aa3fddef8188dE', symObjAddr: 0x9228, symBinAddr: 0x3AC4, symSize: 0x38 }
  - { offset: 0x2CD62, size: 0x8, addend: 0x0, symName: '__ZN4pyo38instance11Py$LT$T$GT$4bind17h7745c94b7be15049E', symObjAddr: 0x9298, symBinAddr: 0x3AFC, symSize: 0x38 }
  - { offset: 0x2CE5A, size: 0x8, addend: 0x0, symName: '__ZN4pyo38instance11Py$LT$T$GT$4bind17hf8f4bbd16d9b3c12E', symObjAddr: 0x9308, symBinAddr: 0x3B34, symSize: 0x38 }
  - { offset: 0x2CECC, size: 0x8, addend: 0x0, symName: '__ZN4pyo38instance11Py$LT$T$GT$6as_ptr17h0f50a588dcdd4a54E', symObjAddr: 0x935C, symBinAddr: 0x3B6C, symSize: 0x1C }
  - { offset: 0x2CEF8, size: 0x8, addend: 0x0, symName: '__ZN4pyo38instance11Py$LT$T$GT$6as_ptr17h1c225184762f5725E', symObjAddr: 0x9378, symBinAddr: 0x3B88, symSize: 0x1C }
  - { offset: 0x2CF7F, size: 0x8, addend: 0x0, symName: '__ZN4pyo38instance11Py$LT$T$GT$6as_ptr17h5659645aae80e867E', symObjAddr: 0x943C, symBinAddr: 0x3BA4, symSize: 0x1C }
  - { offset: 0x2CFC5, size: 0x8, addend: 0x0, symName: '__ZN4pyo38instance11Py$LT$T$GT$6as_ptr17h748d5c5264d555ccE', symObjAddr: 0x94E4, symBinAddr: 0x3BC0, symSize: 0x1C }
  - { offset: 0x2D00B, size: 0x8, addend: 0x0, symName: '__ZN4pyo38instance11Py$LT$T$GT$6as_ptr17h913fa2ff09d574aaE', symObjAddr: 0x9538, symBinAddr: 0x3BDC, symSize: 0x1C }
  - { offset: 0x2D037, size: 0x8, addend: 0x0, symName: '__ZN4pyo38instance11Py$LT$T$GT$6as_ptr17h92aa20fc4b29635eE', symObjAddr: 0x9554, symBinAddr: 0x3BF8, symSize: 0x1C }
  - { offset: 0x2D08A, size: 0x8, addend: 0x0, symName: '__ZN4pyo38instance11Py$LT$T$GT$6as_ptr17ha95cf71deaadac04E', symObjAddr: 0x95C4, symBinAddr: 0x3C14, symSize: 0x1C }
  - { offset: 0x2D0D0, size: 0x8, addend: 0x0, symName: '__ZN4pyo38instance11Py$LT$T$GT$6as_ptr17hc25e045ae1ace8f6E', symObjAddr: 0x95FC, symBinAddr: 0x3C30, symSize: 0x1C }
  - { offset: 0x2D109, size: 0x8, addend: 0x0, symName: '__ZN4pyo38instance11Py$LT$T$GT$6as_ptr17hcb1bb1fcfe68e74bE', symObjAddr: 0x9650, symBinAddr: 0x3C4C, symSize: 0x1C }
  - { offset: 0x2D142, size: 0x8, addend: 0x0, symName: '__ZN4pyo38instance11Py$LT$T$GT$6as_ptr17hcf51d7e812305c18E', symObjAddr: 0x9688, symBinAddr: 0x3C68, symSize: 0x1C }
  - { offset: 0x2D188, size: 0x8, addend: 0x0, symName: '__ZN4pyo38instance11Py$LT$T$GT$8into_any17h26db14d49235d20aE', symObjAddr: 0x973C, symBinAddr: 0x3C84, symSize: 0x30 }
  - { offset: 0x2D1B4, size: 0x8, addend: 0x0, symName: '__ZN4pyo38instance11Py$LT$T$GT$8into_any17h2ea006fa14f551aeE', symObjAddr: 0x976C, symBinAddr: 0x3CB4, symSize: 0x30 }
  - { offset: 0x2D1E0, size: 0x8, addend: 0x0, symName: '__ZN4pyo38instance11Py$LT$T$GT$8into_any17h39e7a562b38082ceE', symObjAddr: 0x979C, symBinAddr: 0x3CE4, symSize: 0x30 }
  - { offset: 0x2D20C, size: 0x8, addend: 0x0, symName: '__ZN4pyo38instance11Py$LT$T$GT$8into_any17h77a60a48ac7e3585E', symObjAddr: 0x97FC, symBinAddr: 0x3D14, symSize: 0x30 }
  - { offset: 0x2D238, size: 0x8, addend: 0x0, symName: '__ZN4pyo38instance11Py$LT$T$GT$8into_any17hc03b38e59744e613E', symObjAddr: 0x988C, symBinAddr: 0x3D44, symSize: 0x30 }
  - { offset: 0x2D264, size: 0x8, addend: 0x0, symName: '__ZN4pyo38instance11Py$LT$T$GT$8into_ptr17h81df4679acd3094eE', symObjAddr: 0x98EC, symBinAddr: 0x3D74, symSize: 0x30 }
  - { offset: 0x2D290, size: 0x8, addend: 0x0, symName: '__ZN4pyo38instance11Py$LT$T$GT$8into_ptr17h986610bf0bb589e2E', symObjAddr: 0x991C, symBinAddr: 0x3DA4, symSize: 0x30 }
  - { offset: 0x2D2BC, size: 0x8, addend: 0x0, symName: '__ZN4pyo38instance11Py$LT$T$GT$8into_ptr17hae699b31e41b0680E', symObjAddr: 0x994C, symBinAddr: 0x3DD4, symSize: 0x30 }
  - { offset: 0x2D2E8, size: 0x8, addend: 0x0, symName: '__ZN4pyo38instance11Py$LT$T$GT$9clone_ref17h6ceeca8a4dd71c9aE', symObjAddr: 0x9D7C, symBinAddr: 0x3E04, symSize: 0x100 }
  - { offset: 0x2D34D, size: 0x8, addend: 0x0, symName: '__ZN4pyo38instance11Py$LT$T$GT$9clone_ref17h7d7a1facbc591e41E', symObjAddr: 0x9F7C, symBinAddr: 0x3F04, symSize: 0x100 }
  - { offset: 0x2D3B2, size: 0x8, addend: 0x0, symName: '__ZN4pyo38instance11Py$LT$T$GT$9clone_ref17hc217564f687af55cE', symObjAddr: 0xA17C, symBinAddr: 0x4004, symSize: 0x100 }
  - { offset: 0x2D417, size: 0x8, addend: 0x0, symName: '__ZN4pyo38instance11Py$LT$T$GT$9clone_ref17hcf88d1925160c01eE', symObjAddr: 0xA27C, symBinAddr: 0x4104, symSize: 0x100 }
  - { offset: 0x2D489, size: 0x8, addend: 0x0, symName: '__ZN4pyo38instance14Bound$LT$T$GT$10as_unbound17hb08ee8c0dcf86da7E', symObjAddr: 0xABFC, symBinAddr: 0x44FC, symSize: 0x1C }
  - { offset: 0x2D4CF, size: 0x8, addend: 0x0, symName: '__ZN4pyo38instance14Bound$LT$T$GT$11as_borrowed17h4e443cd8bf60fcf2E', symObjAddr: 0xACD8, symBinAddr: 0x4518, symSize: 0x40 }
  - { offset: 0x2D508, size: 0x8, addend: 0x0, symName: '__ZN4pyo38instance14Bound$LT$T$GT$11as_borrowed17h513b256a0ad7765aE', symObjAddr: 0xAD18, symBinAddr: 0x4558, symSize: 0x40 }
  - { offset: 0x2D541, size: 0x8, addend: 0x0, symName: '__ZN4pyo38instance14Bound$LT$T$GT$11as_borrowed17h7b4c036cde1965a4E', symObjAddr: 0xAD98, symBinAddr: 0x4598, symSize: 0x40 }
  - { offset: 0x2D57A, size: 0x8, addend: 0x0, symName: '__ZN4pyo38instance14Bound$LT$T$GT$11as_borrowed17h8716575eacf62eddE', symObjAddr: 0xADD8, symBinAddr: 0x45D8, symSize: 0x40 }
  - { offset: 0x2D5B3, size: 0x8, addend: 0x0, symName: '__ZN4pyo38instance14Bound$LT$T$GT$11as_borrowed17habb165814fad77baE', symObjAddr: 0xAE98, symBinAddr: 0x4618, symSize: 0x40 }
  - { offset: 0x2D606, size: 0x8, addend: 0x0, symName: '__ZN4pyo38instance14Bound$LT$T$GT$14cast_unchecked17h35e2920e8aa7725fE', symObjAddr: 0xAFB8, symBinAddr: 0x4658, symSize: 0x38 }
  - { offset: 0x2D659, size: 0x8, addend: 0x0, symName: '__ZN4pyo38instance14Bound$LT$T$GT$14cast_unchecked17h3bbcab6695847ef4E', symObjAddr: 0xAFF0, symBinAddr: 0x4690, symSize: 0x38 }
  - { offset: 0x2D6AC, size: 0x8, addend: 0x0, symName: '__ZN4pyo38instance14Bound$LT$T$GT$14cast_unchecked17h3f365fb8559fbfd9E', symObjAddr: 0xB028, symBinAddr: 0x46C8, symSize: 0x38 }
  - { offset: 0x2D70C, size: 0x8, addend: 0x0, symName: '__ZN4pyo38instance14Bound$LT$T$GT$14cast_unchecked17h699eb429536a5cbaE', symObjAddr: 0xB098, symBinAddr: 0x4700, symSize: 0x38 }
  - { offset: 0x2D7BC, size: 0x8, addend: 0x0, symName: '__ZN4pyo38instance14Bound$LT$T$GT$14cast_unchecked17hceb55277abcf0cceE', symObjAddr: 0xB1E8, symBinAddr: 0x4738, symSize: 0x38 }
  - { offset: 0x2D81C, size: 0x8, addend: 0x0, symName: '__ZN4pyo38instance14Bound$LT$T$GT$19cast_into_unchecked17h6dfc669e5a3f72a5E', symObjAddr: 0xB428, symBinAddr: 0x4770, symSize: 0x14 }
  - { offset: 0x2D851, size: 0x8, addend: 0x0, symName: '__ZN4pyo38instance14Bound$LT$T$GT$19cast_into_unchecked17h760c51e1473f9b2eE', symObjAddr: 0xB450, symBinAddr: 0x4784, symSize: 0x14 }
  - { offset: 0x2D886, size: 0x8, addend: 0x0, symName: '__ZN4pyo38instance14Bound$LT$T$GT$19cast_into_unchecked17h8324c30dc698307fE', symObjAddr: 0xB464, symBinAddr: 0x4798, symSize: 0x14 }
  - { offset: 0x2D8BB, size: 0x8, addend: 0x0, symName: '__ZN4pyo38instance14Bound$LT$T$GT$19cast_into_unchecked17h83748a4cff571d24E', symObjAddr: 0xB478, symBinAddr: 0x47AC, symSize: 0x14 }
  - { offset: 0x2D8F0, size: 0x8, addend: 0x0, symName: '__ZN4pyo38instance14Bound$LT$T$GT$19cast_into_unchecked17h9a18898771a73998E', symObjAddr: 0xB4DC, symBinAddr: 0x47C0, symSize: 0x14 }
  - { offset: 0x2D925, size: 0x8, addend: 0x0, symName: '__ZN4pyo38instance14Bound$LT$T$GT$19cast_into_unchecked17hc825b3be0223902bE', symObjAddr: 0xB518, symBinAddr: 0x47D4, symSize: 0x14 }
  - { offset: 0x2D95A, size: 0x8, addend: 0x0, symName: '__ZN4pyo38instance14Bound$LT$T$GT$19cast_into_unchecked17hcbda32c7d044bb4eE', symObjAddr: 0xB540, symBinAddr: 0x47E8, symSize: 0x14 }
  - { offset: 0x2D98F, size: 0x8, addend: 0x0, symName: '__ZN4pyo38instance14Bound$LT$T$GT$19cast_into_unchecked17hd7710b43331fba0bE', symObjAddr: 0xB568, symBinAddr: 0x47FC, symSize: 0x14 }
  - { offset: 0x2D9C4, size: 0x8, addend: 0x0, symName: '__ZN4pyo38instance14Bound$LT$T$GT$19cast_into_unchecked17he5c6028102248800E', symObjAddr: 0xB5E0, symBinAddr: 0x4810, symSize: 0x14 }
  - { offset: 0x2D9F9, size: 0x8, addend: 0x0, symName: '__ZN4pyo38instance14Bound$LT$T$GT$2py17h10a5a1c63a3cd3e5E', symObjAddr: 0xB62C, symBinAddr: 0x4824, symSize: 0x10 }
  - { offset: 0x2DA3F, size: 0x8, addend: 0x0, symName: '__ZN4pyo38instance14Bound$LT$T$GT$2py17h2d114cba156e3761E', symObjAddr: 0xB65C, symBinAddr: 0x4834, symSize: 0x10 }
  - { offset: 0x2DA92, size: 0x8, addend: 0x0, symName: '__ZN4pyo38instance14Bound$LT$T$GT$2py17h65a77e4dfd51dbc3E', symObjAddr: 0xB6BC, symBinAddr: 0x4844, symSize: 0x10 }
  - { offset: 0x2DAD8, size: 0x8, addend: 0x0, symName: '__ZN4pyo38instance14Bound$LT$T$GT$2py17h80778d16e1848456E', symObjAddr: 0xB6EC, symBinAddr: 0x4854, symSize: 0x10 }
  - { offset: 0x2DB04, size: 0x8, addend: 0x0, symName: '__ZN4pyo38instance14Bound$LT$T$GT$2py17h89152a398d43e869E', symObjAddr: 0xB70C, symBinAddr: 0x4864, symSize: 0x10 }
  - { offset: 0x2DB30, size: 0x8, addend: 0x0, symName: '__ZN4pyo38instance14Bound$LT$T$GT$2py17h8c9b8871363db4b4E', symObjAddr: 0xB72C, symBinAddr: 0x4874, symSize: 0x10 }
  - { offset: 0x2DB5C, size: 0x8, addend: 0x0, symName: '__ZN4pyo38instance14Bound$LT$T$GT$2py17ha151e42480f5bfc4E', symObjAddr: 0xB73C, symBinAddr: 0x4884, symSize: 0x10 }
  - { offset: 0x2DB88, size: 0x8, addend: 0x0, symName: '__ZN4pyo38instance14Bound$LT$T$GT$2py17ha38c2b448c89fb4bE', symObjAddr: 0xB74C, symBinAddr: 0x4894, symSize: 0x10 }
  - { offset: 0x2DBDB, size: 0x8, addend: 0x0, symName: '__ZN4pyo38instance14Bound$LT$T$GT$4cast17h00d9305ce7cc2905E', symObjAddr: 0xB7BC, symBinAddr: 0x48A4, symSize: 0x30 }
  - { offset: 0x2DC0F, size: 0x8, addend: 0x0, symName: '__ZN4pyo38instance14Bound$LT$T$GT$4cast17h0e1d9da702663aaeE', symObjAddr: 0xB7EC, symBinAddr: 0x48D4, symSize: 0x30 }
  - { offset: 0x2DC43, size: 0x8, addend: 0x0, symName: '__ZN4pyo38instance14Bound$LT$T$GT$4cast17h34bdfb1f48b9b3a3E', symObjAddr: 0xB81C, symBinAddr: 0x4904, symSize: 0x30 }
  - { offset: 0x2DC77, size: 0x8, addend: 0x0, symName: '__ZN4pyo38instance14Bound$LT$T$GT$6as_any17h00c6cb312b9df2a8E', symObjAddr: 0xBA8C, symBinAddr: 0x4AC0, symSize: 0x38 }
  - { offset: 0x2DCDF, size: 0x8, addend: 0x0, symName: '__ZN4pyo38instance14Bound$LT$T$GT$6as_any17h0fff545d8042a34aE', symObjAddr: 0xBAC4, symBinAddr: 0x4AF8, symSize: 0x38 }
  - { offset: 0x2DD47, size: 0x8, addend: 0x0, symName: '__ZN4pyo38instance14Bound$LT$T$GT$6as_any17h1fc2fc6228adb9deE', symObjAddr: 0xBB34, symBinAddr: 0x4B30, symSize: 0x38 }
  - { offset: 0x2DDAF, size: 0x8, addend: 0x0, symName: '__ZN4pyo38instance14Bound$LT$T$GT$6as_any17h5e8d2f3c95492fafE', symObjAddr: 0xBC14, symBinAddr: 0x4B68, symSize: 0x38 }
  - { offset: 0x2DE24, size: 0x8, addend: 0x0, symName: '__ZN4pyo38instance14Bound$LT$T$GT$6as_any17h7691b0c775381e95E', symObjAddr: 0xBC4C, symBinAddr: 0x4BA0, symSize: 0x38 }
  - { offset: 0x2DE8C, size: 0x8, addend: 0x0, symName: '__ZN4pyo38instance14Bound$LT$T$GT$6as_any17h8d8c87088dd28e99E', symObjAddr: 0xBCBC, symBinAddr: 0x4BD8, symSize: 0x38 }
  - { offset: 0x2DEF4, size: 0x8, addend: 0x0, symName: '__ZN4pyo38instance14Bound$LT$T$GT$6as_any17hc72a44696b052a02E', symObjAddr: 0xBDD4, symBinAddr: 0x4C10, symSize: 0x38 }
  - { offset: 0x2DF5C, size: 0x8, addend: 0x0, symName: '__ZN4pyo38instance14Bound$LT$T$GT$6as_ptr17h074d511d6c4eee05E', symObjAddr: 0xBE44, symBinAddr: 0x4C48, symSize: 0x2C }
  - { offset: 0x2DF88, size: 0x8, addend: 0x0, symName: '__ZN4pyo38instance14Bound$LT$T$GT$6as_ptr17h40af6c789f92d44aE', symObjAddr: 0xBFA4, symBinAddr: 0x4C74, symSize: 0x2C }
  - { offset: 0x2DFB4, size: 0x8, addend: 0x0, symName: '__ZN4pyo38instance14Bound$LT$T$GT$6as_ptr17h497279b03d8162aeE', symObjAddr: 0xBFD0, symBinAddr: 0x4CA0, symSize: 0x2C }
  - { offset: 0x2DFE0, size: 0x8, addend: 0x0, symName: '__ZN4pyo38instance14Bound$LT$T$GT$6as_ptr17h52114362ed162792E', symObjAddr: 0xC054, symBinAddr: 0x4CCC, symSize: 0x2C }
  - { offset: 0x2E00C, size: 0x8, addend: 0x0, symName: '__ZN4pyo38instance14Bound$LT$T$GT$6as_ptr17h68f913f2a6f6dfd4E', symObjAddr: 0xC104, symBinAddr: 0x4CF8, symSize: 0x2C }
  - { offset: 0x2E045, size: 0x8, addend: 0x0, symName: '__ZN4pyo38instance14Bound$LT$T$GT$6as_ptr17ha93927343d913585E', symObjAddr: 0xC238, symBinAddr: 0x4D24, symSize: 0x2C }
  - { offset: 0x2E07E, size: 0x8, addend: 0x0, symName: '__ZN4pyo38instance14Bound$LT$T$GT$6as_ptr17hb06f9314baf878f7E', symObjAddr: 0xC290, symBinAddr: 0x4D50, symSize: 0x2C }
  - { offset: 0x2E0AA, size: 0x8, addend: 0x0, symName: '__ZN4pyo38instance14Bound$LT$T$GT$6as_ptr17hb1e55d02953efefbE', symObjAddr: 0xC2BC, symBinAddr: 0x4D7C, symSize: 0x2C }
  - { offset: 0x2E0D6, size: 0x8, addend: 0x0, symName: '__ZN4pyo38instance14Bound$LT$T$GT$6as_ptr17hfdb35afc1a299799E', symObjAddr: 0xC398, symBinAddr: 0x4DA8, symSize: 0x2C }
  - { offset: 0x2E102, size: 0x8, addend: 0x0, symName: '__ZN4pyo38instance14Bound$LT$T$GT$6as_ptr17hfdd5bcfeff362887E', symObjAddr: 0xC3C4, symBinAddr: 0x4DD4, symSize: 0x2C }
  - { offset: 0x2E12E, size: 0x8, addend: 0x0, symName: '__ZN4pyo38instance14Bound$LT$T$GT$6unbind17h14316514a83703f8E', symObjAddr: 0xC4A4, symBinAddr: 0x4E00, symSize: 0x3C }
  - { offset: 0x2E15A, size: 0x8, addend: 0x0, symName: '__ZN4pyo38instance14Bound$LT$T$GT$6unbind17h24d632751a4a3defE', symObjAddr: 0xC4E0, symBinAddr: 0x4E3C, symSize: 0x3C }
  - { offset: 0x2E186, size: 0x8, addend: 0x0, symName: '__ZN4pyo38instance14Bound$LT$T$GT$6unbind17h3266b2fbc3c17963E', symObjAddr: 0xC558, symBinAddr: 0x4E78, symSize: 0x3C }
  - { offset: 0x2E1B2, size: 0x8, addend: 0x0, symName: '__ZN4pyo38instance14Bound$LT$T$GT$6unbind17h33391bb49414dc32E', symObjAddr: 0xC594, symBinAddr: 0x4EB4, symSize: 0x3C }
  - { offset: 0x2E1DE, size: 0x8, addend: 0x0, symName: '__ZN4pyo38instance14Bound$LT$T$GT$6unbind17h51dacffad26d1d5cE', symObjAddr: 0xC5D0, symBinAddr: 0x4EF0, symSize: 0x3C }
  - { offset: 0x2E20A, size: 0x8, addend: 0x0, symName: '__ZN4pyo38instance14Bound$LT$T$GT$6unbind17hc03047212cf152a5E', symObjAddr: 0xC6C0, symBinAddr: 0x4F2C, symSize: 0x3C }
  - { offset: 0x2E236, size: 0x8, addend: 0x0, symName: '__ZN4pyo38instance14Bound$LT$T$GT$6unbind17he3f40865075f7b5eE', symObjAddr: 0xC738, symBinAddr: 0x4F68, symSize: 0x3C }
  - { offset: 0x2E262, size: 0x8, addend: 0x0, symName: '__ZN4pyo38instance14Bound$LT$T$GT$8into_any17h0aa429872a88d1ccE', symObjAddr: 0xC774, symBinAddr: 0x4FA4, symSize: 0x30 }
  - { offset: 0x2E28E, size: 0x8, addend: 0x0, symName: '__ZN4pyo38instance14Bound$LT$T$GT$8into_any17h731bb66bb9984714E', symObjAddr: 0xC7D4, symBinAddr: 0x4FD4, symSize: 0x30 }
  - { offset: 0x2E2BA, size: 0x8, addend: 0x0, symName: '__ZN4pyo38instance14Bound$LT$T$GT$8into_any17h74215fe7d307b1acE', symObjAddr: 0xC804, symBinAddr: 0x5004, symSize: 0x30 }
  - { offset: 0x2E2E6, size: 0x8, addend: 0x0, symName: '__ZN4pyo38instance14Bound$LT$T$GT$8into_any17he00e960563536df5E', symObjAddr: 0xC8C4, symBinAddr: 0x5034, symSize: 0x30 }
  - { offset: 0x2E312, size: 0x8, addend: 0x0, symName: '__ZN4pyo38instance14Bound$LT$T$GT$8into_any17hfa38879404c63ff8E', symObjAddr: 0xC924, symBinAddr: 0x5064, symSize: 0x30 }
  - { offset: 0x2E33E, size: 0x8, addend: 0x0, symName: '__ZN4pyo38instance14Bound$LT$T$GT$8into_ptr17hb4280088e20aff73E', symObjAddr: 0xC954, symBinAddr: 0x5094, symSize: 0x40 }
  - { offset: 0x2E36A, size: 0x8, addend: 0x0, symName: '__ZN4pyo38instance14Bound$LT$T$GT$9cast_into17h10850a6e7ec591ceE', symObjAddr: 0xC9C4, symBinAddr: 0x50D4, symSize: 0x30 }
  - { offset: 0x2E39E, size: 0x8, addend: 0x0, symName: '__ZN4pyo38instance14Bound$LT$T$GT$9cast_into17h136f0b321b07ccacE', symObjAddr: 0xC9F4, symBinAddr: 0x5104, symSize: 0x30 }
  - { offset: 0x2E3D2, size: 0x8, addend: 0x0, symName: '__ZN4pyo38instance17Borrowed$LT$T$GT$14cast_unchecked17h466f008b3c691fb6E', symObjAddr: 0xD620, symBinAddr: 0x532C, symSize: 0x14 }
  - { offset: 0x2E407, size: 0x8, addend: 0x0, symName: '__ZN4pyo38instance17Borrowed$LT$T$GT$14cast_unchecked17h51c1b7aeee76b36bE', symObjAddr: 0xD648, symBinAddr: 0x5340, symSize: 0x14 }
  - { offset: 0x2E43C, size: 0x8, addend: 0x0, symName: '__ZN4pyo38instance17Borrowed$LT$T$GT$14cast_unchecked17h5cb24ca58c893ae4E', symObjAddr: 0xD670, symBinAddr: 0x5354, symSize: 0x14 }
  - { offset: 0x2E471, size: 0x8, addend: 0x0, symName: '__ZN4pyo38instance17Borrowed$LT$T$GT$14cast_unchecked17h7924535d2e55dd7fE', symObjAddr: 0xD6C0, symBinAddr: 0x5368, symSize: 0x14 }
  - { offset: 0x2E4A6, size: 0x8, addend: 0x0, symName: '__ZN4pyo38instance17Borrowed$LT$T$GT$14cast_unchecked17h8eb6a8f9f07dadcaE', symObjAddr: 0xD6E8, symBinAddr: 0x537C, symSize: 0x14 }
  - { offset: 0x2E4DB, size: 0x8, addend: 0x0, symName: '__ZN4pyo38instance17Borrowed$LT$T$GT$14cast_unchecked17hd9444801d8b7e14cE', symObjAddr: 0xD738, symBinAddr: 0x5390, symSize: 0x14 }
  - { offset: 0x2E510, size: 0x8, addend: 0x0, symName: '__ZN4pyo38instance17Borrowed$LT$T$GT$14cast_unchecked17hf438efffa5f074eeE', symObjAddr: 0xD74C, symBinAddr: 0x53A4, symSize: 0x14 }
  - { offset: 0x2E545, size: 0x8, addend: 0x0, symName: '__ZN4pyo38instance17Borrowed$LT$T$GT$6as_ptr17h700796708bfa05e2E', symObjAddr: 0xDBA0, symBinAddr: 0x53B8, symSize: 0x1C }
  - { offset: 0x2E571, size: 0x8, addend: 0x0, symName: '__ZN4pyo38instance17Borrowed$LT$T$GT$6as_ptr17ha38baaa46a207ec8E', symObjAddr: 0xDBD8, symBinAddr: 0x53D4, symSize: 0x1C }
  - { offset: 0x2E59D, size: 0x8, addend: 0x0, symName: '__ZN4pyo38instance17Borrowed$LT$T$GT$6as_ptr17hae000b4477b8d963E', symObjAddr: 0xDBF4, symBinAddr: 0x53F0, symSize: 0x1C }
  - { offset: 0x2E5C9, size: 0x8, addend: 0x0, symName: '__ZN4pyo38instance17Borrowed$LT$T$GT$6as_ptr17hb40eed85fb07a85cE', symObjAddr: 0xDC10, symBinAddr: 0x540C, symSize: 0x1C }
  - { offset: 0x2E5F5, size: 0x8, addend: 0x0, symName: '__ZN4pyo38instance17Borrowed$LT$T$GT$6to_any17h19f7d216203ba6c8E', symObjAddr: 0xDC40, symBinAddr: 0x5428, symSize: 0x14 }
  - { offset: 0x2E621, size: 0x8, addend: 0x0, symName: '__ZN4pyo38instance17Borrowed$LT$T$GT$6to_any17h326963362ea53118E', symObjAddr: 0xDC68, symBinAddr: 0x543C, symSize: 0x14 }
  - { offset: 0x2E64D, size: 0x8, addend: 0x0, symName: '__ZN4pyo38instance17Borrowed$LT$T$GT$6to_any17h7688d7e474cbc942E', symObjAddr: 0xDCB8, symBinAddr: 0x5450, symSize: 0x14 }
  - { offset: 0x2E6BC, size: 0x8, addend: 0x0, symName: '__ZN4pyo38instance17Borrowed$LT$T$GT$8to_owned17h2c2e9332a695084dE', symObjAddr: 0xE028, symBinAddr: 0x5464, symSize: 0x2C }
  - { offset: 0x2E6E8, size: 0x8, addend: 0x0, symName: '__ZN4pyo38instance17Borrowed$LT$T$GT$8to_owned17hd0d6c3b055db8ba2E', symObjAddr: 0xE0AC, symBinAddr: 0x5490, symSize: 0x2C }
  - { offset: 0x2E74C, size: 0x8, addend: 0x0, symName: '__ZN4pyo38instance36Bound$LT$pyo3..types..any..PyAny$GT$14from_owned_ptr17h0d478965d00da13eE', symObjAddr: 0xE13C, symBinAddr: 0x54BC, symSize: 0x48 }
  - { offset: 0x2E7B5, size: 0x8, addend: 0x0, symName: '__ZN4pyo38instance36Bound$LT$pyo3..types..any..PyAny$GT$17ref_from_non_null17h03c1d23e1d951095E', symObjAddr: 0xE1A0, symBinAddr: 0x5520, symSize: 0x38 }
  - { offset: 0x2E83C, size: 0x8, addend: 0x0, symName: '__ZN4pyo38instance36Bound$LT$pyo3..types..any..PyAny$GT$21from_owned_ptr_or_err17h4f7f2c7294c5230dE', symObjAddr: 0xE210, symBinAddr: 0x5558, symSize: 0x9C }
  - { offset: 0x2E898, size: 0x8, addend: 0x0, symName: '__ZN4pyo38instance36Bound$LT$pyo3..types..any..PyAny$GT$21from_owned_ptr_or_opt17h07f3d69ec5b25995E', symObjAddr: 0xE2AC, symBinAddr: 0x55F4, symSize: 0x2C }
  - { offset: 0x2E8D6, size: 0x8, addend: 0x0, symName: '__ZN4pyo38instance39Borrowed$LT$pyo3..types..any..PyAny$GT$13from_non_null17h0ab5edba494870c6E', symObjAddr: 0xE348, symBinAddr: 0x5658, symSize: 0x14 }
  - { offset: 0x2E914, size: 0x8, addend: 0x0, symName: '__ZN4pyo38instance39Borrowed$LT$pyo3..types..any..PyAny$GT$18from_ptr_unchecked17hb110339ff082cc14E', symObjAddr: 0xE42C, symBinAddr: 0x5704, symSize: 0x30 }
  - { offset: 0x2FAB4, size: 0x8, addend: 0x0, symName: '__ZN152_$LT$core..result..Result$LT$pyo3..instance..Bound$LT$pyo3..types..any..PyAny$GT$$C$pyo3..err..PyErr$GT$$u20$as$u20$pyo3..py_result_ext..PyResultExt$GT$19cast_into_unchecked17h23a57ac449cd67ebE', symObjAddr: 0x80, symBinAddr: 0x6C9C, symSize: 0x40 }
  - { offset: 0x2FAEA, size: 0x8, addend: 0x0, symName: '__ZN152_$LT$core..result..Result$LT$pyo3..instance..Bound$LT$pyo3..types..any..PyAny$GT$$C$pyo3..err..PyErr$GT$$u20$as$u20$pyo3..py_result_ext..PyResultExt$GT$19cast_into_unchecked17h4753e91faa40ffc6E', symObjAddr: 0xC0, symBinAddr: 0x6CDC, symSize: 0x40 }
  - { offset: 0x2FB20, size: 0x8, addend: 0x0, symName: '__ZN152_$LT$core..result..Result$LT$pyo3..instance..Bound$LT$pyo3..types..any..PyAny$GT$$C$pyo3..err..PyErr$GT$$u20$as$u20$pyo3..py_result_ext..PyResultExt$GT$19cast_into_unchecked17hb3fccda5976243d3E', symObjAddr: 0x3C0, symBinAddr: 0x6D1C, symSize: 0x40 }
  - { offset: 0x2FB56, size: 0x8, addend: 0x0, symName: '__ZN152_$LT$core..result..Result$LT$pyo3..instance..Bound$LT$pyo3..types..any..PyAny$GT$$C$pyo3..err..PyErr$GT$$u20$as$u20$pyo3..py_result_ext..PyResultExt$GT$19cast_into_unchecked17hf59aa20d2140d3ecE', symObjAddr: 0x4C0, symBinAddr: 0x6D5C, symSize: 0x40 }
  - { offset: 0x30DCB, size: 0x8, addend: 0x0, symName: '__ZN153_$LT$core..result..Result$LT$T$C$F$GT$$u20$as$u20$core..ops..try_trait..FromResidual$LT$core..result..Result$LT$core..convert..Infallible$C$E$GT$$GT$$GT$13from_residual17h0438ed088e4f6f6eE', symObjAddr: 0x6EC, symBinAddr: 0x6D9C, symSize: 0x6C }
  - { offset: 0x30E51, size: 0x8, addend: 0x0, symName: '__ZN153_$LT$core..result..Result$LT$T$C$F$GT$$u20$as$u20$core..ops..try_trait..FromResidual$LT$core..result..Result$LT$core..convert..Infallible$C$E$GT$$GT$$GT$13from_residual17h140a785a29a8d01bE', symObjAddr: 0x908, symBinAddr: 0x6E08, symSize: 0x6C }
  - { offset: 0x30ED7, size: 0x8, addend: 0x0, symName: '__ZN153_$LT$core..result..Result$LT$T$C$F$GT$$u20$as$u20$core..ops..try_trait..FromResidual$LT$core..result..Result$LT$core..convert..Infallible$C$E$GT$$GT$$GT$13from_residual17h2ec51b30764890e5E', symObjAddr: 0xF2C, symBinAddr: 0x6E74, symSize: 0x6C }
  - { offset: 0x30F5D, size: 0x8, addend: 0x0, symName: '__ZN153_$LT$core..result..Result$LT$T$C$F$GT$$u20$as$u20$core..ops..try_trait..FromResidual$LT$core..result..Result$LT$core..convert..Infallible$C$E$GT$$GT$$GT$13from_residual17h37159f6502da93c7E', symObjAddr: 0x1220, symBinAddr: 0x6EE0, symSize: 0x6C }
  - { offset: 0x30FE3, size: 0x8, addend: 0x0, symName: '__ZN153_$LT$core..result..Result$LT$T$C$F$GT$$u20$as$u20$core..ops..try_trait..FromResidual$LT$core..result..Result$LT$core..convert..Infallible$C$E$GT$$GT$$GT$13from_residual17h3afe2d9af86e69c7E', symObjAddr: 0x13D0, symBinAddr: 0x6F4C, symSize: 0x14 }
  - { offset: 0x3102C, size: 0x8, addend: 0x0, symName: '__ZN153_$LT$core..result..Result$LT$T$C$F$GT$$u20$as$u20$core..ops..try_trait..FromResidual$LT$core..result..Result$LT$core..convert..Infallible$C$E$GT$$GT$$GT$13from_residual17h7538bcfa4b859c38E', symObjAddr: 0x1BA8, symBinAddr: 0x6F60, symSize: 0x6C }
  - { offset: 0x31093, size: 0x8, addend: 0x0, symName: '__ZN153_$LT$core..result..Result$LT$T$C$F$GT$$u20$as$u20$core..ops..try_trait..FromResidual$LT$core..result..Result$LT$core..convert..Infallible$C$E$GT$$GT$$GT$13from_residual17h87f3da0da4d4e603E', symObjAddr: 0x1E9C, symBinAddr: 0x6FCC, symSize: 0x6C }
  - { offset: 0x310FA, size: 0x8, addend: 0x0, symName: '__ZN153_$LT$core..result..Result$LT$T$C$F$GT$$u20$as$u20$core..ops..try_trait..FromResidual$LT$core..result..Result$LT$core..convert..Infallible$C$E$GT$$GT$$GT$13from_residual17h8d95dfba062e6ee6E', symObjAddr: 0x1F08, symBinAddr: 0x7038, symSize: 0x6C }
  - { offset: 0x31180, size: 0x8, addend: 0x0, symName: '__ZN153_$LT$core..result..Result$LT$T$C$F$GT$$u20$as$u20$core..ops..try_trait..FromResidual$LT$core..result..Result$LT$core..convert..Infallible$C$E$GT$$GT$$GT$13from_residual17hac1e0acd407c86e5E', symObjAddr: 0x2390, symBinAddr: 0x70A4, symSize: 0x6C }
  - { offset: 0x31206, size: 0x8, addend: 0x0, symName: '__ZN153_$LT$core..result..Result$LT$T$C$F$GT$$u20$as$u20$core..ops..try_trait..FromResidual$LT$core..result..Result$LT$core..convert..Infallible$C$E$GT$$GT$$GT$13from_residual17hbcc5638b875068eeE', symObjAddr: 0x2628, symBinAddr: 0x7110, symSize: 0x6C }
  - { offset: 0x3128C, size: 0x8, addend: 0x0, symName: '__ZN153_$LT$core..result..Result$LT$T$C$F$GT$$u20$as$u20$core..ops..try_trait..FromResidual$LT$core..result..Result$LT$core..convert..Infallible$C$E$GT$$GT$$GT$13from_residual17hcea9bbf37e73b18fE', symObjAddr: 0x28B0, symBinAddr: 0x717C, symSize: 0x6C }
  - { offset: 0x31312, size: 0x8, addend: 0x0, symName: '__ZN153_$LT$core..result..Result$LT$T$C$F$GT$$u20$as$u20$core..ops..try_trait..FromResidual$LT$core..result..Result$LT$core..convert..Infallible$C$E$GT$$GT$$GT$13from_residual17hf9ac10c1c490b8d5E', symObjAddr: 0x2DC4, symBinAddr: 0x71E8, symSize: 0x6C }
  - { offset: 0x339A6, size: 0x8, addend: 0x0, symName: '__ZN79_$LT$core..result..Result$LT$T$C$E$GT$$u20$as$u20$core..ops..try_trait..Try$GT$6branch17h0193bba395d324f4E', symObjAddr: 0x6CF4, symBinAddr: 0x7D90, symSize: 0x68 }
  - { offset: 0x33A23, size: 0x8, addend: 0x0, symName: '__ZN79_$LT$core..result..Result$LT$T$C$E$GT$$u20$as$u20$core..ops..try_trait..Try$GT$6branch17h028cd738da8e8e75E', symObjAddr: 0x6D5C, symBinAddr: 0x7DF8, symSize: 0xA0 }
  - { offset: 0x33AA0, size: 0x8, addend: 0x0, symName: '__ZN79_$LT$core..result..Result$LT$T$C$E$GT$$u20$as$u20$core..ops..try_trait..Try$GT$6branch17h0e840af82a3c5471E', symObjAddr: 0x6FE4, symBinAddr: 0x7E98, symSize: 0xA0 }
  - { offset: 0x33B1D, size: 0x8, addend: 0x0, symName: '__ZN79_$LT$core..result..Result$LT$T$C$E$GT$$u20$as$u20$core..ops..try_trait..Try$GT$6branch17h286f31c88f4e44eeE', symObjAddr: 0x7124, symBinAddr: 0x7F38, symSize: 0xA0 }
  - { offset: 0x33B9A, size: 0x8, addend: 0x0, symName: '__ZN79_$LT$core..result..Result$LT$T$C$E$GT$$u20$as$u20$core..ops..try_trait..Try$GT$6branch17h36e80155f0a43ae0E', symObjAddr: 0x744C, symBinAddr: 0x7FD8, symSize: 0xA0 }
  - { offset: 0x33C17, size: 0x8, addend: 0x0, symName: '__ZN79_$LT$core..result..Result$LT$T$C$E$GT$$u20$as$u20$core..ops..try_trait..Try$GT$6branch17h57107ab83289f620E', symObjAddr: 0x7A28, symBinAddr: 0x8078, symSize: 0x14 }
  - { offset: 0x33C53, size: 0x8, addend: 0x0, symName: '__ZN79_$LT$core..result..Result$LT$T$C$E$GT$$u20$as$u20$core..ops..try_trait..Try$GT$6branch17h5f4df5cbc2e2f94fE', symObjAddr: 0x7B50, symBinAddr: 0x808C, symSize: 0x38 }
  - { offset: 0x33CCF, size: 0x8, addend: 0x0, symName: '__ZN79_$LT$core..result..Result$LT$T$C$E$GT$$u20$as$u20$core..ops..try_trait..Try$GT$6branch17h686dd5a8463916abE', symObjAddr: 0x7D38, symBinAddr: 0x80C4, symSize: 0x44 }
  - { offset: 0x33D4B, size: 0x8, addend: 0x0, symName: '__ZN79_$LT$core..result..Result$LT$T$C$E$GT$$u20$as$u20$core..ops..try_trait..Try$GT$6branch17h69453d6676cd5fb2E', symObjAddr: 0x7D7C, symBinAddr: 0x8108, symSize: 0xB4 }
  - { offset: 0x33DC9, size: 0x8, addend: 0x0, symName: '__ZN79_$LT$core..result..Result$LT$T$C$E$GT$$u20$as$u20$core..ops..try_trait..Try$GT$6branch17h758b4cb3ce2f57ccE', symObjAddr: 0x7ED0, symBinAddr: 0x81BC, symSize: 0x68 }
  - { offset: 0x33E46, size: 0x8, addend: 0x0, symName: '__ZN79_$LT$core..result..Result$LT$T$C$E$GT$$u20$as$u20$core..ops..try_trait..Try$GT$6branch17h7bb1043072d56cbdE', symObjAddr: 0x8138, symBinAddr: 0x8224, symSize: 0xA0 }
  - { offset: 0x33EC3, size: 0x8, addend: 0x0, symName: '__ZN79_$LT$core..result..Result$LT$T$C$E$GT$$u20$as$u20$core..ops..try_trait..Try$GT$6branch17h9400faee9e1db644E', symObjAddr: 0x855C, symBinAddr: 0x82C4, symSize: 0xA0 }
  - { offset: 0x33F40, size: 0x8, addend: 0x0, symName: '__ZN79_$LT$core..result..Result$LT$T$C$E$GT$$u20$as$u20$core..ops..try_trait..Try$GT$6branch17h9adffa4acd4c5850E', symObjAddr: 0x8784, symBinAddr: 0x8364, symSize: 0xA0 }
  - { offset: 0x33FBD, size: 0x8, addend: 0x0, symName: '__ZN79_$LT$core..result..Result$LT$T$C$E$GT$$u20$as$u20$core..ops..try_trait..Try$GT$6branch17hcc53036e583bcd38E', symObjAddr: 0x8BEC, symBinAddr: 0x8404, symSize: 0x90 }
  - { offset: 0x3403A, size: 0x8, addend: 0x0, symName: '__ZN79_$LT$core..result..Result$LT$T$C$E$GT$$u20$as$u20$core..ops..try_trait..Try$GT$6branch17hd69fe75fd485f880E', symObjAddr: 0x8E5C, symBinAddr: 0x8494, symSize: 0xA0 }
  - { offset: 0x360A5, size: 0x8, addend: 0x0, symName: '__ZN4core6result19Result$LT$T$C$E$GT$14unwrap_or_else17h89d56e2f59b968d4E', symObjAddr: 0x2E9C, symBinAddr: 0x7254, symSize: 0x8C }
  - { offset: 0x3612B, size: 0x8, addend: 0x0, symName: '__ZN4core6result19Result$LT$T$C$E$GT$3map17h0b0b95190b206f9eE', symObjAddr: 0x3080, symBinAddr: 0x72E0, symSize: 0x90 }
  - { offset: 0x361D6, size: 0x8, addend: 0x0, symName: '__ZN4core6result19Result$LT$T$C$E$GT$3map17h1890f6aa96ca36b3E', symObjAddr: 0x3358, symBinAddr: 0x7370, symSize: 0xA8 }
  - { offset: 0x36269, size: 0x8, addend: 0x0, symName: '__ZN4core6result19Result$LT$T$C$E$GT$3map17h2c6ef4775b1747efE', symObjAddr: 0x3490, symBinAddr: 0x7418, symSize: 0x90 }
  - { offset: 0x362FC, size: 0x8, addend: 0x0, symName: '__ZN4core6result19Result$LT$T$C$E$GT$3map17h4c7cdaf9dfe87081E', symObjAddr: 0x3520, symBinAddr: 0x74A8, symSize: 0xA0 }
  - { offset: 0x363BC, size: 0x8, addend: 0x0, symName: '__ZN4core6result19Result$LT$T$C$E$GT$3map17h7f835177782795cbE', symObjAddr: 0x3958, symBinAddr: 0x7548, symSize: 0x90 }
  - { offset: 0x3644F, size: 0x8, addend: 0x0, symName: '__ZN4core6result19Result$LT$T$C$E$GT$3map17ha7ea02b28f8ba102E', symObjAddr: 0x3E10, symBinAddr: 0x75D8, symSize: 0x90 }
  - { offset: 0x36514, size: 0x8, addend: 0x0, symName: '__ZN4core6result19Result$LT$T$C$E$GT$3map17hbdf584a7ee809841E', symObjAddr: 0x3FEC, symBinAddr: 0x7668, symSize: 0x74 }
  - { offset: 0x365BE, size: 0x8, addend: 0x0, symName: '__ZN4core6result19Result$LT$T$C$E$GT$3map17hfee727897a0f837fE', symObjAddr: 0x4534, symBinAddr: 0x76DC, symSize: 0x90 }
  - { offset: 0x3665E, size: 0x8, addend: 0x0, symName: '__ZN4core6result19Result$LT$T$C$E$GT$6as_ref17he0ccf2880bad4463E', symObjAddr: 0x45C4, symBinAddr: 0x776C, symSize: 0x68 }
  - { offset: 0x366CF, size: 0x8, addend: 0x0, symName: '__ZN4core6result19Result$LT$T$C$E$GT$6expect17h0fad8f0437c6e464E', symObjAddr: 0x462C, symBinAddr: 0x77D4, symSize: 0xB0 }
  - { offset: 0x36739, size: 0x8, addend: 0x0, symName: '__ZN4core6result19Result$LT$T$C$E$GT$6expect17hcd0d52becf54da67E', symObjAddr: 0x4B48, symBinAddr: 0x7884, symSize: 0x84 }
  - { offset: 0x3679B, size: 0x8, addend: 0x0, symName: '__ZN4core6result19Result$LT$T$C$E$GT$6expect17hd936b339a7603d90E', symObjAddr: 0x4C7C, symBinAddr: 0x7908, symSize: 0xA4 }
  - { offset: 0x367FE, size: 0x8, addend: 0x0, symName: '__ZN4core6result19Result$LT$T$C$E$GT$6expect17he0121dd3e8fb0062E', symObjAddr: 0x4D20, symBinAddr: 0x79AC, symSize: 0xB0 }
  - { offset: 0x36861, size: 0x8, addend: 0x0, symName: '__ZN4core6result19Result$LT$T$C$E$GT$7map_err17h2cb7daf83d6aaa5aE', symObjAddr: 0x50EC, symBinAddr: 0x7A5C, symSize: 0x84 }
  - { offset: 0x3696B, size: 0x8, addend: 0x0, symName: '__ZN4core6result19Result$LT$T$C$E$GT$7map_err17ha0477c1508588bc1E', symObjAddr: 0x5AA8, symBinAddr: 0x7AE0, symSize: 0x30 }
  - { offset: 0x369E1, size: 0x8, addend: 0x0, symName: '__ZN4core6result19Result$LT$T$C$E$GT$7map_err17ha499d4f99a6fa7a0E', symObjAddr: 0x5AD8, symBinAddr: 0x7B10, symSize: 0x98 }
  - { offset: 0x36A7B, size: 0x8, addend: 0x0, symName: '__ZN4core6result19Result$LT$T$C$E$GT$7map_err17he135c5220b8e5638E', symObjAddr: 0x6078, symBinAddr: 0x7BA8, symSize: 0x84 }
  - { offset: 0x36B0E, size: 0x8, addend: 0x0, symName: '__ZN4core6result19Result$LT$T$C$E$GT$9unwrap_or17h0a3b7508f38f5354E', symObjAddr: 0x6A14, symBinAddr: 0x7C2C, symSize: 0xF4 }
  - { offset: 0x36B54, size: 0x8, addend: 0x0, symName: '__ZN4core6result19Result$LT$T$C$E$GT$9unwrap_or17ha7f0eb5cb6ac1c5bE', symObjAddr: 0x6B74, symBinAddr: 0x7D20, symSize: 0x70 }
  - { offset: 0x36C05, size: 0x8, addend: 0x0, symName: '__ZN3std4sync4once4Once15call_once_force28_$u7b$$u7b$closure$u7d$$u7d$17h057014a5765732d7E', symObjAddr: 0xD1C, symBinAddr: 0x89D8, symSize: 0x84 }
  - { offset: 0x36C97, size: 0x8, addend: 0x0, symName: '__ZN3std4sync4once4Once15call_once_force28_$u7b$$u7b$closure$u7d$$u7d$17h92e4fe0adf3cdb4bE', symObjAddr: 0xEA8, symBinAddr: 0x8A5C, symSize: 0x68 }
  - { offset: 0x36D29, size: 0x8, addend: 0x0, symName: '__ZN3std4sync4once4Once15call_once_force28_$u7b$$u7b$closure$u7d$$u7d$17he818caa998da4fa4E', symObjAddr: 0xF10, symBinAddr: 0x8AC4, symSize: 0x68 }
  - { offset: 0x36DC1, size: 0x8, addend: 0x0, symName: '__ZN3std4sync4once4Once9call_once28_$u7b$$u7b$closure$u7d$$u7d$17h38b51ee6f7bf0baaE', symObjAddr: 0x1150, symBinAddr: 0x8D04, symSize: 0x68 }
  - { offset: 0x36E4F, size: 0x8, addend: 0x0, symName: '__ZN3std4sync4once4Once9call_once28_$u7b$$u7b$closure$u7d$$u7d$17he583ceeafbfb0437E', symObjAddr: 0x11B8, symBinAddr: 0x8D6C, symSize: 0x60 }
  - { offset: 0x3710B, size: 0x8, addend: 0x0, symName: '__ZN3std4sync9once_lock17OnceLock$LT$T$GT$10initialize28_$u7b$$u7b$closure$u7d$$u7d$17ha6c6e3ceddddf08aE', symObjAddr: 0x1268, symBinAddr: 0x8DCC, symSize: 0xB8 }
  - { offset: 0x3724F, size: 0x8, addend: 0x0, symName: '__ZN3std4sync9once_lock17OnceLock$LT$T$GT$11get_or_init28_$u7b$$u7b$closure$u7d$$u7d$17h845ccd0b558b041dE', symObjAddr: 0x134C, symBinAddr: 0x8EB0, symSize: 0x3C }
  - { offset: 0x3968F, size: 0x8, addend: 0x0, symName: '__ZN110_$LT$core..iter..adapters..enumerate..Enumerate$LT$I$GT$$u20$as$u20$core..iter..traits..iterator..Iterator$GT$4next17hcd40b1ab3f1f02f3E', symObjAddr: 0x61C, symBinAddr: 0x8534, symSize: 0xEC }
  - { offset: 0x39775, size: 0x8, addend: 0x0, symName: '__ZN110_$LT$core..iter..adapters..enumerate..Enumerate$LT$I$GT$$u20$as$u20$core..iter..traits..iterator..Iterator$GT$4next17he0641602638b128eE', symObjAddr: 0x708, symBinAddr: 0x8620, symSize: 0xEC }
  - { offset: 0x398C1, size: 0x8, addend: 0x0, symName: '__ZN63_$LT$I$u20$as$u20$core..iter..traits..collect..IntoIterator$GT$9into_iter17h4352d40fe34a9832E', symObjAddr: 0x2B78, symBinAddr: 0x91D0, symSize: 0x14 }
  - { offset: 0x398F8, size: 0x8, addend: 0x0, symName: '__ZN63_$LT$I$u20$as$u20$core..iter..traits..collect..IntoIterator$GT$9into_iter17hb2b2045d015675ffE', symObjAddr: 0x2BD8, symBinAddr: 0x91E4, symSize: 0x14 }
  - { offset: 0x399FE, size: 0x8, addend: 0x0, symName: '__ZN4core7convert3num71_$LT$impl$u20$core..convert..TryFrom$LT$usize$GT$$u20$for$u20$isize$GT$8try_from17heacb94483d1a2036E', symObjAddr: 0x2888, symBinAddr: 0x9174, symSize: 0x5C }
  - { offset: 0x39A7E, size: 0x8, addend: 0x0, symName: __ZN4core4hint16assert_unchecked18precondition_check17hc6f09e0144ad97ebE, symObjAddr: 0x156C, symBinAddr: 0x9024, symSize: 0x58 }
  - { offset: 0x39AC9, size: 0x8, addend: 0x0, symName: __ZN4core4hint21unreachable_unchecked18precondition_check17h641662e2ebbb5c1bE, symObjAddr: 0x15C4, symBinAddr: 0x907C, symSize: 0x3C }
  - { offset: 0x39B85, size: 0x8, addend: 0x0, symName: __ZN4core5alloc6layout6Layout25from_size_align_unchecked18precondition_check17haff829cda07c1dbdE, symObjAddr: 0x20A4, symBinAddr: 0x90B8, symSize: 0xBC }
  - { offset: 0x3B24A, size: 0x8, addend: 0x0, symName: __ZN3std4sync4once4Once12is_completed17h526451e913a9db6cE, symObjAddr: 0x878, symBinAddr: 0x870C, symSize: 0x38 }
  - { offset: 0x3B2ED, size: 0x8, addend: 0x0, symName: __ZN3std4sync4once4Once15call_once_force17habf1e2a27c5f8dcdE, symObjAddr: 0xA88, symBinAddr: 0x8744, symSize: 0xD4 }
  - { offset: 0x3B3B2, size: 0x8, addend: 0x0, symName: __ZN3std4sync4once4Once15call_once_force17hea974952ea2b8c78E, symObjAddr: 0xB5C, symBinAddr: 0x8818, symSize: 0xEC }
  - { offset: 0x3B477, size: 0x8, addend: 0x0, symName: __ZN3std4sync4once4Once15call_once_force17hec22aa932eaab8cbE, symObjAddr: 0xC48, symBinAddr: 0x8904, symSize: 0xD4 }
  - { offset: 0x3B617, size: 0x8, addend: 0x0, symName: __ZN3std4sync4once4Once3new17hbdf854574abbaea7E, symObjAddr: 0xF78, symBinAddr: 0x8B2C, symSize: 0x28 }
  - { offset: 0x3B68F, size: 0x8, addend: 0x0, symName: __ZN3std4sync4once4Once9call_once17h26e338da457df985E, symObjAddr: 0xFA0, symBinAddr: 0x8B54, symSize: 0xDC }
  - { offset: 0x3B754, size: 0x8, addend: 0x0, symName: __ZN3std4sync4once4Once9call_once17h4ba91cddd40319daE, symObjAddr: 0x107C, symBinAddr: 0x8C30, symSize: 0xD4 }
  - { offset: 0x3B879, size: 0x8, addend: 0x0, symName: '__ZN3std4sync9once_lock17OnceLock$LT$T$GT$10initialize17h5fa905df8fe04f9cE', symObjAddr: 0x1218, symBinAddr: 0x45FF0, symSize: 0x50 }
  - { offset: 0x3B9B6, size: 0x8, addend: 0x0, symName: '__ZN3std4sync9once_lock17OnceLock$LT$T$GT$11get_or_init17h215eaa5c3e1d0553E', symObjAddr: 0x1320, symBinAddr: 0x8E84, symSize: 0x2C }
  - { offset: 0x3BAB7, size: 0x8, addend: 0x0, symName: '__ZN3std4sync9once_lock17OnceLock$LT$T$GT$15get_or_try_init17h66b76d8108627bccE', symObjAddr: 0x1388, symBinAddr: 0x8EEC, symSize: 0xD4 }
  - { offset: 0x3BDAF, size: 0x8, addend: 0x0, symName: '__ZN3std4sync9once_lock17OnceLock$LT$T$GT$3get17hee16ec01d4f08772E', symObjAddr: 0x1508, symBinAddr: 0x8FC0, symSize: 0x64 }
  - { offset: 0x3BFAB, size: 0x8, addend: 0x0, symName: '__ZN36_$LT$T$u20$as$u20$core..any..Any$GT$7type_id17h4a639efcbaa0c339E', symObjAddr: 0x0, symBinAddr: 0x91F8, symSize: 0x20 }
  - { offset: 0x3C0D0, size: 0x8, addend: 0x0, symName: '__ZN45_$LT$T$u20$as$u20$alloc..string..ToString$GT$9to_string17h7085f5d92a8d588dE', symObjAddr: 0x7AC, symBinAddr: 0x9248, symSize: 0x24 }
  - { offset: 0x3C12B, size: 0x8, addend: 0x0, symName: '__ZN76_$LT$alloc..string..String$u20$as$u20$core..convert..From$LT$$RF$str$GT$$GT$4from17hf9976bb6f7ee0f8bE', symObjAddr: 0x6554, symBinAddr: 0x9DD4, symSize: 0x50 }
  - { offset: 0x3C218, size: 0x8, addend: 0x0, symName: '__ZN55_$LT$$RF$str$u20$as$u20$alloc..string..SpecToString$GT$14spec_to_string17h3130a17f7dc9a849E', symObjAddr: 0x599C, symBinAddr: 0x9C6C, symSize: 0x5C }
  - { offset: 0x3C37D, size: 0x8, addend: 0x0, symName: '__ZN65_$LT$alloc..string..String$u20$as$u20$core..ops..deref..Deref$GT$5deref17ha0c848ce9f9477e7E', symObjAddr: 0x608C, symBinAddr: 0x9D60, symSize: 0x20 }
  - { offset: 0x3C43C, size: 0x8, addend: 0x0, symName: '__ZN58_$LT$alloc..string..String$u20$as$u20$core..fmt..Debug$GT$3fmt17h43a9f78b7faa36abE', symObjAddr: 0x5A70, symBinAddr: 0x9CC8, symSize: 0x3C }
  - { offset: 0x3C576, size: 0x8, addend: 0x0, symName: '__ZN60_$LT$alloc..string..String$u20$as$u20$core..fmt..Display$GT$3fmt17h6a7a9bd4c894a4d0E', symObjAddr: 0x5F40, symBinAddr: 0x9D24, symSize: 0x3C }
  - { offset: 0x3CB09, size: 0x8, addend: 0x0, symName: '__ZN5alloc3str83_$LT$impl$u20$core..borrow..Borrow$LT$str$GT$$u20$for$u20$alloc..string..String$GT$6borrow17h980cb58d0105d5dfE', symObjAddr: 0x5B28, symBinAddr: 0x9D04, symSize: 0x20 }
  - { offset: 0x3D0E3, size: 0x8, addend: 0x0, symName: '__ZN4core3ptr9const_ptr33_$LT$impl$u20$$BP$const$u20$T$GT$20offset_from_unsigned18precondition_check17ha1cfa1799324af01E', symObjAddr: 0x16C4, symBinAddr: 0x93A0, symSize: 0x60 }
  - { offset: 0x3D1CC, size: 0x8, addend: 0x0, symName: '__ZN4core3ptr9const_ptr33_$LT$impl$u20$$BP$const$u20$T$GT$6offset18precondition_check17hd1fc88510c536250E', symObjAddr: 0x1724, symBinAddr: 0x9400, symSize: 0xC4 }
  - { offset: 0x3D3C5, size: 0x8, addend: 0x0, symName: '__ZN4core3ptr9const_ptr33_$LT$impl$u20$$BP$const$u20$T$GT$7is_null17hcb7c26f6c6feae26E', symObjAddr: 0x17E8, symBinAddr: 0x94C4, symSize: 0x18 }
  - { offset: 0x3D577, size: 0x8, addend: 0x0, symName: '__ZN70_$LT$core..num..error..TryFromIntError$u20$as$u20$core..fmt..Debug$GT$3fmt17hdd461cd9a1a78eb4E', symObjAddr: 0x6390, symBinAddr: 0x9D80, symSize: 0x54 }
  - { offset: 0x3E553, size: 0x8, addend: 0x0, symName: '__ZN42_$LT$$RF$T$u20$as$u20$core..fmt..Debug$GT$3fmt17h7def6c4a4715e071E', symObjAddr: 0x5FC, symBinAddr: 0x9218, symSize: 0x30 }
  - { offset: 0x3E6E8, size: 0x8, addend: 0x0, symName: '__ZN4core3str21_$LT$impl$u20$str$GT$3len17hf19962d4ff2d538fE', symObjAddr: 0x1B80, symBinAddr: 0x94DC, symSize: 0x1C }
  - { offset: 0x3E8B1, size: 0x8, addend: 0x0, symName: '__ZN36_$LT$T$u20$as$u20$core..any..Any$GT$7type_id17h4a639efcbaa0c339E', symObjAddr: 0x0, symBinAddr: 0x91F8, symSize: 0x20 }
  - { offset: 0x3F378, size: 0x8, addend: 0x0, symName: '__ZN47_$LT$T$u20$as$u20$pyo3..err..PyErrArguments$GT$9arguments17h2d190f5d42dab111E', symObjAddr: 0x8AC, symBinAddr: 0x926C, symSize: 0x134 }
  - { offset: 0x3F4C6, size: 0x8, addend: 0x0, symName: '__ZN78_$LT$pyo3..err..cast_error..DisplayCastError$u20$as$u20$core..fmt..Display$GT$3fmt17hb44030a0c53b1e27E', symObjAddr: 0x65A4, symBinAddr: 0x9E24, symSize: 0x244 }
  - { offset: 0x3F5C6, size: 0x8, addend: 0x0, symName: '__ZN78_$LT$pyo3..err..cast_error..DisplayCastError$u20$as$u20$core..fmt..Display$GT$3fmt28_$u7b$$u7b$closure$u7d$$u7d$17h3b1d40b7a26e9533E', symObjAddr: 0x67E8, symBinAddr: 0xA068, symSize: 0x24 }
  - { offset: 0x3F60A, size: 0x8, addend: 0x0, symName: '__ZN78_$LT$pyo3..err..cast_error..DisplayClassInfo$u20$as$u20$core..fmt..Display$GT$3fmt17h9561c0058d625afdE', symObjAddr: 0x680C, symBinAddr: 0xA08C, symSize: 0x520 }
  - { offset: 0x3F743, size: 0x8, addend: 0x0, symName: '__ZN78_$LT$pyo3..err..cast_error..DisplayClassInfo$u20$as$u20$core..fmt..Display$GT$3fmt28_$u7b$$u7b$closure$u7d$$u7d$17h588096b74fcab15fE', symObjAddr: 0x6D2C, symBinAddr: 0xA5AC, symSize: 0x1C }
  - { offset: 0x3F780, size: 0x8, addend: 0x0, symName: '__ZN87_$LT$pyo3..err..cast_error..CastErrorArguments$u20$as$u20$pyo3..err..PyErrArguments$GT$9arguments17h0a4b5c1684e2b5faE', symObjAddr: 0x6DE0, symBinAddr: 0xA5C8, symSize: 0x1AC }
  - { offset: 0x3FACB, size: 0x8, addend: 0x0, symName: '__ZN4pyo35types5tuple74_$LT$impl$u20$pyo3..conversion..IntoPyObject$u20$for$u20$$LP$T0$C$$RP$$GT$13into_pyobject17h729c7c9e0a737c95E', symObjAddr: 0x5798, symBinAddr: 0x9B94, symSize: 0xD8 }
  - { offset: 0x3FDA1, size: 0x8, addend: 0x0, symName: '__ZN4pyo34sync9once_lock19PyOnceLock$LT$T$GT$11get_or_init28_$u7b$$u7b$closure$u7d$$u7d$17h23126e196ed70d83E', symObjAddr: 0x30E8, symBinAddr: 0x97E4, symSize: 0x28 }
  - { offset: 0x3FE00, size: 0x8, addend: 0x0, symName: '__ZN4pyo34sync9once_lock19PyOnceLock$LT$T$GT$11get_or_init28_$u7b$$u7b$closure$u7d$$u7d$17ha1e346b07fe59878E', symObjAddr: 0x3110, symBinAddr: 0x980C, symSize: 0x38 }
  - { offset: 0x3FE96, size: 0x8, addend: 0x0, symName: __ZN4pyo34sync9once_lock26init_once_cell_py_attached17h5110bf1d8e283633E, symObjAddr: 0x35D8, symBinAddr: 0x46040, symSize: 0xAC }
  - { offset: 0x3FF18, size: 0x8, addend: 0x0, symName: __ZN4pyo34sync9once_lock26init_once_cell_py_attached17h8fc88339e8348070E, symObjAddr: 0x3684, symBinAddr: 0x460EC, symSize: 0xB4 }
  - { offset: 0x3FFA0, size: 0x8, addend: 0x0, symName: '__ZN4pyo34sync9once_lock26init_once_cell_py_attached28_$u7b$$u7b$closure$u7d$$u7d$17h43963441a3619adbE', symObjAddr: 0x3738, symBinAddr: 0x9844, symSize: 0x90 }
  - { offset: 0x3FFF0, size: 0x8, addend: 0x0, symName: '__ZN4pyo34sync9once_lock26init_once_cell_py_attached28_$u7b$$u7b$closure$u7d$$u7d$17h79111662e7a46d46E', symObjAddr: 0x37C8, symBinAddr: 0x98D4, symSize: 0x80 }
  - { offset: 0x40077, size: 0x8, addend: 0x0, symName: __ZN4pyo310conversion15IntoPyObjectExt11into_py_any17h911394a69b277858E, symObjAddr: 0x2154, symBinAddr: 0x94F8, symSize: 0x60 }
  - { offset: 0x400E4, size: 0x8, addend: 0x0, symName: __ZN4pyo310conversion15IntoPyObjectExt17into_bound_py_any17h13a28aaba9b348bfE, symObjAddr: 0x21B4, symBinAddr: 0x9558, symSize: 0x60 }
  - { offset: 0x40166, size: 0x8, addend: 0x0, symName: '__ZN4pyo311conversions3std6string68_$LT$impl$u20$pyo3..conversion..IntoPyObject$u20$for$u20$$RF$str$GT$13into_pyobject17h416aed2d8d3e421bE', symObjAddr: 0x2564, symBinAddr: 0x95B8, symSize: 0x28 }
  - { offset: 0x401B1, size: 0x8, addend: 0x0, symName: '__ZN4pyo311conversions3std6string82_$LT$impl$u20$pyo3..conversion..IntoPyObject$u20$for$u20$alloc..string..String$GT$13into_pyobject17he2f04e1cf71cd796E', symObjAddr: 0x2624, symBinAddr: 0x95E0, symSize: 0x74 }
  - { offset: 0x4022A, size: 0x8, addend: 0x0, symName: __ZN4pyo35impl_10trampoline33panic_result_into_callback_output17h2d5bb8bd015a5440E, symObjAddr: 0x4C24, symBinAddr: 0x9954, symSize: 0x114 }
  - { offset: 0x402F6, size: 0x8, addend: 0x0, symName: __ZN4pyo35impl_10trampoline33panic_result_into_callback_output17hadc570560aeaa837E, symObjAddr: 0x4D38, symBinAddr: 0x9A68, symSize: 0x12C }
  - { offset: 0x40F30, size: 0x8, addend: 0x0, symName: __ZN8pyo3_ffi10listobject12PyList_Check17hdafc96a4818d25d3E, symObjAddr: 0x7220, symBinAddr: 0xA774, symSize: 0x30 }
  - { offset: 0x416AD, size: 0x8, addend: 0x0, symName: __ZN4pyo33err10cast_error13CastIntoError3new17h9f0339d7f62271e3E, symObjAddr: 0x2794, symBinAddr: 0x9654, symSize: 0x1C }
  - { offset: 0x416DD, size: 0x8, addend: 0x0, symName: __ZN4pyo33err10cast_error9CastError3new17hee830d9e9b33a5ecE, symObjAddr: 0x27B0, symBinAddr: 0x9670, symSize: 0x1C }
  - { offset: 0x41734, size: 0x8, addend: 0x0, symName: '__ZN4pyo34sync9once_lock19PyOnceLock$LT$T$GT$11get_or_init17h07114e1ea81af1bfE', symObjAddr: 0x2F90, symBinAddr: 0x968C, symSize: 0xA8 }
  - { offset: 0x417A9, size: 0x8, addend: 0x0, symName: '__ZN4pyo34sync9once_lock19PyOnceLock$LT$T$GT$11get_or_init17hb6bb575b6282a761E', symObjAddr: 0x3038, symBinAddr: 0x9734, symSize: 0xB0 }
  - { offset: 0x41CC4, size: 0x8, addend: 0x0, symName: '__ZN100_$LT$core..array..iter..iter_inner..PolymorphicIter$LT$DATA$GT$$u20$as$u20$core..ops..drop..Drop$GT$4drop17h28775c71c903dfb4E', symObjAddr: 0x0, symBinAddr: 0xA7A4, symSize: 0x30 }
  - { offset: 0x4222D, size: 0x8, addend: 0x0, symName: '__ZN4core3ptr7mut_ptr31_$LT$impl$u20$$BP$mut$u20$T$GT$6offset18precondition_check17h9fbeda0f523a5752E', symObjAddr: 0x1AA0, symBinAddr: 0xA928, symSize: 0xC4 }
  - { offset: 0x4359E, size: 0x8, addend: 0x0, symName: '__ZN4core3num23_$LT$impl$u20$usize$GT$13unchecked_add18precondition_check17h26592387565919c1E', symObjAddr: 0x19A8, symBinAddr: 0xA8C4, symSize: 0x64 }
  - { offset: 0x43FC8, size: 0x8, addend: 0x0, symName: '__ZN100_$LT$core..array..iter..iter_inner..PolymorphicIter$LT$DATA$GT$$u20$as$u20$core..ops..drop..Drop$GT$4drop17h28775c71c903dfb4E', symObjAddr: 0x0, symBinAddr: 0xA7A4, symSize: 0x30 }
  - { offset: 0x44684, size: 0x8, addend: 0x0, symName: __ZN4core4iter6traits8iterator8Iterator9enumerate17h72d4474c73bf6a02E, symObjAddr: 0x1BE4, symBinAddr: 0xA9EC, symSize: 0x18 }
  - { offset: 0x446B5, size: 0x8, addend: 0x0, symName: __ZN4core4iter6traits8iterator8Iterator9enumerate17h72d4474c73bf6a02E, symObjAddr: 0x1BE4, symBinAddr: 0xA9EC, symSize: 0x18 }
  - { offset: 0x44D05, size: 0x8, addend: 0x0, symName: __ZN8pyo3_ffi7cpython11tupleobject16PyTuple_GET_ITEM17h89d489c8b08c3c9aE, symObjAddr: 0x86E4, symBinAddr: 0xCD1C, symSize: 0x10C }
  - { offset: 0x44D64, size: 0x8, addend: 0x0, symName: __ZN8pyo3_ffi7cpython11tupleobject16PyTuple_GET_SIZE17h59d5d1238031894eE, symObjAddr: 0x87F0, symBinAddr: 0xCE28, symSize: 0x24 }
  - { offset: 0x44D90, size: 0x8, addend: 0x0, symName: __ZN8pyo3_ffi7cpython11tupleobject16PyTuple_SET_ITEM17hefffb8cb1317f2f5E, symObjAddr: 0x8814, symBinAddr: 0xCE4C, symSize: 0x118 }
  - { offset: 0x45525, size: 0x8, addend: 0x0, symName: __ZN4pyo321interpreter_lifecycle5START17haac6d88f33cd7194E, symObjAddr: 0xAE80, symBinAddr: 0x703D0, symSize: 0x0 }
  - { offset: 0x45532, size: 0x8, addend: 0x0, symName: __ZN4pyo321interpreter_lifecycle10initialize17h0ebbf3194a39c2bcE, symObjAddr: 0x239C, symBinAddr: 0xABD4, symSize: 0x1C }
  - { offset: 0x45550, size: 0x8, addend: 0x0, symName: '__ZN4pyo321interpreter_lifecycle10initialize28_$u7b$$u7b$closure$u7d$$u7d$17h1199599c484d4dd6E', symObjAddr: 0x23B8, symBinAddr: 0xABF0, symSize: 0x38 }
  - { offset: 0x45586, size: 0x8, addend: 0x0, symName: __ZN4pyo321interpreter_lifecycle18ensure_initialized17hcd0edb351d7193a3E, symObjAddr: 0x23F0, symBinAddr: 0xAC28, symSize: 0x38 }
  - { offset: 0x455A4, size: 0x8, addend: 0x0, symName: '__ZN4pyo321interpreter_lifecycle18ensure_initialized28_$u7b$$u7b$closure$u7d$$u7d$17hfb3b447bf86d37f8E', symObjAddr: 0x2428, symBinAddr: 0xAC60, symSize: 0x90 }
  - { offset: 0x45630, size: 0x8, addend: 0x0, symName: '__ZN4pyo33err9err_state10PyErrState10normalized28_$u7b$$u7b$closure$u7d$$u7d$17h89fb10c01c7ec609E', symObjAddr: 0x2810, symBinAddr: 0xAE84, symSize: 0xC }
  - { offset: 0x45661, size: 0x8, addend: 0x0, symName: '__ZN4pyo33err9err_state10PyErrState15make_normalized28_$u7b$$u7b$closure$u7d$$u7d$17h1311777235aeb606E', symObjAddr: 0x2CF0, symBinAddr: 0xAF88, symSize: 0x34 }
  - { offset: 0x45690, size: 0x8, addend: 0x0, symName: '__ZN4pyo33err9err_state10PyErrState15make_normalized28_$u7b$$u7b$closure$u7d$$u7d$28_$u7b$$u7b$closure$u7d$$u7d$17h0ce54807db14cf27E', symObjAddr: 0x2D24, symBinAddr: 0xAFBC, symSize: 0x360 }
  - { offset: 0x45742, size: 0x8, addend: 0x0, symName: '__ZN4pyo33err9err_state10PyErrState15make_normalized28_$u7b$$u7b$closure$u7d$$u7d$28_$u7b$$u7b$closure$u7d$$u7d$28_$u7b$$u7b$closure$u7d$$u7d$17hb06a5bb13d8bc274E', symObjAddr: 0x3084, symBinAddr: 0xB31C, symSize: 0x50 }
  - { offset: 0x459BD, size: 0x8, addend: 0x0, symName: __ZN4pyo33err9err_state10raise_lazy17h5310c3d5faaad10eE, symObjAddr: 0x31C0, symBinAddr: 0xB458, symSize: 0x130 }
  - { offset: 0x45A51, size: 0x8, addend: 0x0, symName: '__ZN4pyo33err9err_state20PyErrStateNormalized10ptraceback28_$u7b$$u7b$closure$u7d$$u7d$17hee0fccdba07c4a03E', symObjAddr: 0x3560, symBinAddr: 0xB7F8, symSize: 0x34 }
  - { offset: 0x45AAF, size: 0x8, addend: 0x0, symName: '__ZN4pyo33err9err_state20PyErrStateNormalized25from_normalized_ffi_tuple28_$u7b$$u7b$closure$u7d$$u7d$17h7824d583c212d41aE', symObjAddr: 0x36D8, symBinAddr: 0xB970, symSize: 0x28 }
  - { offset: 0x45AF5, size: 0x8, addend: 0x0, symName: '__ZN4pyo33err9err_state20PyErrStateNormalized4take28_$u7b$$u7b$closure$u7d$$u7d$17h0487c4f12007c27bE', symObjAddr: 0x3A58, symBinAddr: 0xBB64, symSize: 0x24 }
  - { offset: 0x45B2B, size: 0x8, addend: 0x0, symName: '__ZN4pyo33err9err_state20PyErrStateNormalized4take28_$u7b$$u7b$closure$u7d$$u7d$17h0f689fae5c2a0ef9E', symObjAddr: 0x3A7C, symBinAddr: 0xBB88, symSize: 0x24 }
  - { offset: 0x45B61, size: 0x8, addend: 0x0, symName: '__ZN4pyo33err9err_state20PyErrStateNormalized4take28_$u7b$$u7b$closure$u7d$$u7d$17h2d851a3fd2b10073E', symObjAddr: 0x3AA0, symBinAddr: 0xBBAC, symSize: 0x24 }
  - { offset: 0x45B97, size: 0x8, addend: 0x0, symName: '__ZN4pyo33err9err_state20PyErrStateNormalized4take28_$u7b$$u7b$closure$u7d$$u7d$17hf1b73be37bcc82adE', symObjAddr: 0x3AC4, symBinAddr: 0xBBD0, symSize: 0x158 }
  - { offset: 0x45BFA, size: 0x8, addend: 0x0, symName: __ZN4pyo33err9err_state30lazy_into_normalized_ffi_tuple17he9ea4440114f4df6E, symObjAddr: 0x3D48, symBinAddr: 0xBD50, symSize: 0x84 }
  - { offset: 0x4607F, size: 0x8, addend: 0x0, symName: '__ZN107_$LT$pyo3..instance..Bound$LT$pyo3..types..list..PyList$GT$$u20$as$u20$pyo3..types..list..PyListMethods$GT$6append5inner17h0d5fff3e5a3ac525E', symObjAddr: 0x744, symBinAddr: 0xA7D4, symSize: 0x60 }
  - { offset: 0x460ED, size: 0x8, addend: 0x0, symName: '__ZN75_$LT$pyo3..types..list..PyList$u20$as$u20$pyo3..type_object..PyTypeInfo$GT$10is_type_of17hb7ac70a0587617d7E', symObjAddr: 0x82A0, symBinAddr: 0xCB30, symSize: 0x30 }
  - { offset: 0x46119, size: 0x8, addend: 0x0, symName: '__ZN75_$LT$pyo3..types..list..PyList$u20$as$u20$pyo3..type_object..PyTypeInfo$GT$15type_object_raw17h88ef68c9a448086dE', symObjAddr: 0x82D0, symBinAddr: 0xCB60, symSize: 0x24 }
  - { offset: 0x46155, size: 0x8, addend: 0x0, symName: '__ZN75_$LT$pyo3..types..list..PyList$u20$as$u20$pyo3..type_object..PyTypeInfo$GT$15type_object_raw28_$u7b$$u7b$closure$u7d$$u7d$17h45ced147f0fc5daaE', symObjAddr: 0x82F4, symBinAddr: 0xCB84, symSize: 0x18 }
  - { offset: 0x462C0, size: 0x8, addend: 0x0, symName: __ZN4pyo35types5tuple16array_into_tuple17h0c55875f50bb7a38E, symObjAddr: 0x4E04, symBinAddr: 0xBE04, symSize: 0x200 }
  - { offset: 0x463D9, size: 0x8, addend: 0x0, symName: '__ZN4pyo35types5tuple74_$LT$impl$u20$pyo3..conversion..IntoPyObject$u20$for$u20$$LP$T0$C$$RP$$GT$13into_pyobject17hfbf4e9f7b8d1d821E', symObjAddr: 0x6FA4, symBinAddr: 0xC0AC, symSize: 0xCC }
  - { offset: 0x46453, size: 0x8, addend: 0x0, symName: '__ZN77_$LT$pyo3..types..tuple..PyTuple$u20$as$u20$pyo3..type_object..PyTypeInfo$GT$10is_type_of17h02017417af9f06b0E', symObjAddr: 0x8368, symBinAddr: 0xCBF8, symSize: 0x30 }
  - { offset: 0x4647F, size: 0x8, addend: 0x0, symName: '__ZN77_$LT$pyo3..types..tuple..PyTuple$u20$as$u20$pyo3..type_object..PyTypeInfo$GT$15type_object_raw17hd2b54fee47a950d0E', symObjAddr: 0x8398, symBinAddr: 0xCC28, symSize: 0x24 }
  - { offset: 0x464BB, size: 0x8, addend: 0x0, symName: '__ZN77_$LT$pyo3..types..tuple..PyTuple$u20$as$u20$pyo3..type_object..PyTypeInfo$GT$15type_object_raw28_$u7b$$u7b$closure$u7d$$u7d$17h2d8b735ab87977b9E', symObjAddr: 0x83BC, symBinAddr: 0xCC4C, symSize: 0x18 }
  - { offset: 0x4650A, size: 0x8, addend: 0x0, symName: '__ZN97_$LT$pyo3..types..tuple..BoundTupleIterator$u20$as$u20$core..iter..traits..iterator..Iterator$GT$4next17h395c2567a2a6bfacE', symObjAddr: 0x8B40, symBinAddr: 0xCF64, symSize: 0xD0 }
  - { offset: 0x465C8, size: 0x8, addend: 0x0, symName: '__ZN4pyo38internal5state12ATTACH_COUNT29_$u7b$$u7b$constant$u7d$$u7d$28_$u7b$$u7b$closure$u7d$$u7d$23__RUST_STD_INTERNAL_VAL17h3eeba496847ff898E', symObjAddr: 0xAEB8, symBinAddr: 0x70E18, symSize: 0x0 }
  - { offset: 0x465D7, size: 0x8, addend: 0x0, symName: '__ZN4pyo38internal5state12ATTACH_COUNT29_$u7b$$u7b$constant$u7d$$u7d$28_$u7b$$u7b$closure$u7d$$u7d$17ha159a90444fdaa50E', symObjAddr: 0x7788, symBinAddr: 0xC318, symSize: 0x30 }
  - { offset: 0x4661F, size: 0x8, addend: 0x0, symName: __ZN4pyo38internal5state4POOL17h5c6967ba3ebc7fe8E, symObjAddr: 0xAE88, symBinAddr: 0x703D8, symSize: 0x0 }
  - { offset: 0x46748, size: 0x8, addend: 0x0, symName: '__ZN4pyo38internal5state11AttachGuard10try_attach28_$u7b$$u7b$closure$u7d$$u7d$17h0e9d274384901173E', symObjAddr: 0x7614, symBinAddr: 0xC234, symSize: 0x24 }
  - { offset: 0x467CE, size: 0x8, addend: 0x0, symName: '__ZN4pyo38internal5state13SuspendAttach3new28_$u7b$$u7b$closure$u7d$$u7d$17h00fbcb1feedd13bcE', symObjAddr: 0x7D30, symBinAddr: 0xC8C0, symSize: 0x28 }
  - { offset: 0x4685A, size: 0x8, addend: 0x0, symName: __ZN4pyo38internal5state15register_decref17ha96fbe67f5035651E, symObjAddr: 0x7E28, symBinAddr: 0xC8E8, symSize: 0x2C }
  - { offset: 0x46889, size: 0x8, addend: 0x0, symName: '__ZN4pyo38internal5state18thread_is_attached28_$u7b$$u7b$closure$u7d$$u7d$17h0be37da224160346E', symObjAddr: 0x7EA8, symBinAddr: 0xC914, symSize: 0x2C }
  - { offset: 0x468CC, size: 0x8, addend: 0x0, symName: '__ZN4pyo38internal5state22decrement_attach_count28_$u7b$$u7b$closure$u7d$$u7d$17h460298d10cf51c68E', symObjAddr: 0x7ED4, symBinAddr: 0xC940, symSize: 0x8C }
  - { offset: 0x46924, size: 0x8, addend: 0x0, symName: '__ZN4pyo38internal5state22increment_attach_count28_$u7b$$u7b$closure$u7d$$u7d$17hb970024150610d02E', symObjAddr: 0x7F60, symBinAddr: 0xC9CC, symSize: 0x74 }
  - { offset: 0x46977, size: 0x8, addend: 0x0, symName: __ZN4pyo38internal5state24drop_deferred_references17h1048367c8946e0f5E, symObjAddr: 0x7FD4, symBinAddr: 0xCA40, symSize: 0x4C }
  - { offset: 0x469C7, size: 0x8, addend: 0x0, symName: __ZN4pyo38internal5state8get_pool17h560c35bbf048c8f9E, symObjAddr: 0x8020, symBinAddr: 0xCA8C, symSize: 0x1C }
  - { offset: 0x469F6, size: 0x8, addend: 0x0, symName: '__ZN76_$LT$pyo3..internal..state..AttachGuard$u20$as$u20$core..ops..drop..Drop$GT$4drop17h747b35540d53722cE', symObjAddr: 0x830C, symBinAddr: 0xCB9C, symSize: 0x5C }
  - { offset: 0x46A55, size: 0x8, addend: 0x0, symName: '__ZN78_$LT$pyo3..internal..state..SuspendAttach$u20$as$u20$core..ops..drop..Drop$GT$4drop17hb41bef759a5f5924E', symObjAddr: 0x83D4, symBinAddr: 0xCC64, symSize: 0x80 }
  - { offset: 0x46AA0, size: 0x8, addend: 0x0, symName: '__ZN78_$LT$pyo3..internal..state..SuspendAttach$u20$as$u20$core..ops..drop..Drop$GT$4drop28_$u7b$$u7b$closure$u7d$$u7d$17h4947a2ad496f3c8dE', symObjAddr: 0x8454, symBinAddr: 0xCCE4, symSize: 0x38 }
  - { offset: 0x46B42, size: 0x8, addend: 0x0, symName: '__ZN152_$LT$core..result..Result$LT$pyo3..instance..Bound$LT$pyo3..types..any..PyAny$GT$$C$pyo3..err..PyErr$GT$$u20$as$u20$pyo3..py_result_ext..PyResultExt$GT$19cast_into_unchecked28_$u7b$$u7b$closure$u7d$$u7d$17h762d80a10a495574E', symObjAddr: 0xD00, symBinAddr: 0xA834, symSize: 0x24 }
  - { offset: 0x46B81, size: 0x8, addend: 0x0, symName: '__ZN152_$LT$core..result..Result$LT$pyo3..instance..Bound$LT$pyo3..types..any..PyAny$GT$$C$pyo3..err..PyErr$GT$$u20$as$u20$pyo3..py_result_ext..PyResultExt$GT$19cast_into_unchecked28_$u7b$$u7b$closure$u7d$$u7d$17h77cb7bb2fbe7cb50E', symObjAddr: 0xD24, symBinAddr: 0xA858, symSize: 0x24 }
  - { offset: 0x46BC0, size: 0x8, addend: 0x0, symName: '__ZN152_$LT$core..result..Result$LT$pyo3..instance..Bound$LT$pyo3..types..any..PyAny$GT$$C$pyo3..err..PyErr$GT$$u20$as$u20$pyo3..py_result_ext..PyResultExt$GT$19cast_into_unchecked28_$u7b$$u7b$closure$u7d$$u7d$17haa9ffd2c56461657E', symObjAddr: 0xE44, symBinAddr: 0xA87C, symSize: 0x24 }
  - { offset: 0x46BFF, size: 0x8, addend: 0x0, symName: '__ZN152_$LT$core..result..Result$LT$pyo3..instance..Bound$LT$pyo3..types..any..PyAny$GT$$C$pyo3..err..PyErr$GT$$u20$as$u20$pyo3..py_result_ext..PyResultExt$GT$19cast_into_unchecked28_$u7b$$u7b$closure$u7d$$u7d$17hcce4addada4892ceE', symObjAddr: 0xEB0, symBinAddr: 0xA8A0, symSize: 0x24 }
  - { offset: 0x46C67, size: 0x8, addend: 0x0, symName: __ZN4pyo311type_object10PyTypeInfo11type_object17h2ead80998f2e7b88E, symObjAddr: 0x2178, symBinAddr: 0xAB74, symSize: 0x30 }
  - { offset: 0x46CA7, size: 0x8, addend: 0x0, symName: __ZN4pyo311type_object10PyTypeInfo11type_object17haf6fff44a762b365E, symObjAddr: 0x2208, symBinAddr: 0xABA4, symSize: 0x30 }
  - { offset: 0x46CED, size: 0x8, addend: 0x0, symName: '__ZN52_$LT$T$u20$as$u20$pyo3..type_object..PyTypeCheck$GT$10type_check17h38e5670b3e06cdcaE', symObjAddr: 0x803C, symBinAddr: 0xCAA8, symSize: 0x24 }
  - { offset: 0x46D22, size: 0x8, addend: 0x0, symName: '__ZN52_$LT$T$u20$as$u20$pyo3..type_object..PyTypeCheck$GT$10type_check17haf1c78f7c3c735edE', symObjAddr: 0x80A8, symBinAddr: 0xCACC, symSize: 0x24 }
  - { offset: 0x46D57, size: 0x8, addend: 0x0, symName: '__ZN52_$LT$T$u20$as$u20$pyo3..type_object..PyTypeCheck$GT$16classinfo_object17haee2c1f50e85ec8aE', symObjAddr: 0x8150, symBinAddr: 0xCAF0, symSize: 0x20 }
  - { offset: 0x46D97, size: 0x8, addend: 0x0, symName: '__ZN52_$LT$T$u20$as$u20$pyo3..type_object..PyTypeCheck$GT$16classinfo_object17hf22baf79a4e85b8eE', symObjAddr: 0x8190, symBinAddr: 0xCB10, symSize: 0x20 }
  - { offset: 0x47086, size: 0x8, addend: 0x0, symName: '__ZN4core5array4iter10iter_inner78PolymorphicIter$LT$$u5b$core..mem..maybe_uninit..MaybeUninit$LT$T$GT$$u5d$$GT$4next17h674d361a714ba5ecE', symObjAddr: 0x1D78, symBinAddr: 0xAA04, symSize: 0x170 }
  - { offset: 0x47318, size: 0x8, addend: 0x0, symName: __ZN4pyo33err9err_state10PyErrState10from_inner17h587d171c9d031cdcE, symObjAddr: 0x267C, symBinAddr: 0xACF0, symSize: 0x100 }
  - { offset: 0x47359, size: 0x8, addend: 0x0, symName: __ZN4pyo33err9err_state10PyErrState10normalized17h4ae10cf9227a7480E, symObjAddr: 0x277C, symBinAddr: 0xADF0, symSize: 0x94 }
  - { offset: 0x473AB, size: 0x8, addend: 0x0, symName: __ZN4pyo33err9err_state10PyErrState13as_normalized17h7849491eefd8bb92E, symObjAddr: 0x281C, symBinAddr: 0xAE90, symSize: 0xF8 }
  - { offset: 0x47446, size: 0x8, addend: 0x0, symName: __ZN4pyo33err9err_state10PyErrState15make_normalized17hdfe7d0ae25a886b0E, symObjAddr: 0x2A2C, symBinAddr: 0x461A0, symSize: 0x2C4 }
  - { offset: 0x47508, size: 0x8, addend: 0x0, symName: __ZN4pyo33err9err_state10PyErrState4lazy17h91bf3aeb413b81feE, symObjAddr: 0x30D4, symBinAddr: 0xB36C, symSize: 0x40 }
  - { offset: 0x47546, size: 0x8, addend: 0x0, symName: __ZN4pyo33err9err_state10PyErrState7restore17h361a072ba8c432caE, symObjAddr: 0x3114, symBinAddr: 0xB3AC, symSize: 0xAC }
  - { offset: 0x475A0, size: 0x8, addend: 0x0, symName: __ZN4pyo33err9err_state15PyErrStateInner7restore17hb52b15b618900247E, symObjAddr: 0x32F0, symBinAddr: 0xB588, symSize: 0x1A4 }
  - { offset: 0x4768A, size: 0x8, addend: 0x0, symName: __ZN4pyo33err9err_state15PyErrStateInner9normalize17hca146ef99abcc656E, symObjAddr: 0x3494, symBinAddr: 0xB72C, symSize: 0xA0 }
  - { offset: 0x47743, size: 0x8, addend: 0x0, symName: __ZN4pyo33err9err_state20PyErrStateNormalized10ptraceback17h7276489e80ca5a4bE, symObjAddr: 0x3534, symBinAddr: 0xB7CC, symSize: 0x2C }
  - { offset: 0x4777E, size: 0x8, addend: 0x0, symName: __ZN4pyo33err9err_state20PyErrStateNormalized25from_normalized_ffi_tuple17h2280bd75d995fe3aE, symObjAddr: 0x3594, symBinAddr: 0xB82C, symSize: 0x144 }
  - { offset: 0x477D5, size: 0x8, addend: 0x0, symName: __ZN4pyo33err9err_state20PyErrStateNormalized4take17h3ad64f362f0e46beE, symObjAddr: 0x388C, symBinAddr: 0xB998, symSize: 0x1CC }
  - { offset: 0x47895, size: 0x8, addend: 0x0, symName: __ZN4pyo33err9err_state20PyErrStateNormalized5ptype17h03c76f7e379aab83E, symObjAddr: 0x3C1C, symBinAddr: 0xBD28, symSize: 0x28 }
  - { offset: 0x478DD, size: 0x8, addend: 0x0, symName: __ZN4pyo35types4list6PyList5empty17he6bfd34d7a52aa1dE, symObjAddr: 0x4DD4, symBinAddr: 0xBDD4, symSize: 0x30 }
  - { offset: 0x4790A, size: 0x8, addend: 0x0, symName: __ZN4pyo35types5tuple18BoundTupleIterator3new17ha00136cf68619fc8E, symObjAddr: 0x5D18, symBinAddr: 0xC004, symSize: 0x78 }
  - { offset: 0x47965, size: 0x8, addend: 0x0, symName: __ZN4pyo35types5tuple21BorrowedTupleIterator8get_item17h7fd6d447160cf529E, symObjAddr: 0x5E9C, symBinAddr: 0xC07C, symSize: 0x30 }
  - { offset: 0x479FF, size: 0x8, addend: 0x0, symName: __ZN4pyo38internal5state11AttachGuard10try_attach17h3a2b0ed9e2416fadE, symObjAddr: 0x7558, symBinAddr: 0xC178, symSize: 0xBC }
  - { offset: 0x47A3F, size: 0x8, addend: 0x0, symName: __ZN4pyo38internal5state11AttachGuard19do_attach_unchecked17hecb7cec35907648eE, symObjAddr: 0x768C, symBinAddr: 0x46464, symSize: 0x3C }
  - { offset: 0x47A84, size: 0x8, addend: 0x0, symName: __ZN4pyo38internal5state11AttachGuard6assume17h5a6041f0bd5922ddE, symObjAddr: 0x76C8, symBinAddr: 0xC258, symSize: 0x28 }
  - { offset: 0x47AAC, size: 0x8, addend: 0x0, symName: __ZN4pyo38internal5state11AttachGuard6attach17hb8d65dbe92949723E, symObjAddr: 0x76F0, symBinAddr: 0xC280, symSize: 0x78 }
  - { offset: 0x47ADD, size: 0x8, addend: 0x0, symName: __ZN4pyo38internal5state11AttachGuard6python17ha0a27449ddb74ccaE, symObjAddr: 0x7768, symBinAddr: 0xC2F8, symSize: 0x20 }
  - { offset: 0x47B4F, size: 0x8, addend: 0x0, symName: __ZN4pyo38internal5state13ReferencePool15register_decref17hb8d0640138be128aE, symObjAddr: 0x77B8, symBinAddr: 0xC348, symSize: 0x128 }
  - { offset: 0x47BD4, size: 0x8, addend: 0x0, symName: __ZN4pyo38internal5state13ReferencePool24drop_deferred_references17h8c42ea7bacc58848E, symObjAddr: 0x78E0, symBinAddr: 0xC470, symSize: 0x3C4 }
  - { offset: 0x47CD6, size: 0x8, addend: 0x0, symName: __ZN4pyo38internal5state13ReferencePool3new17h05acd574c30f3acdE, symObjAddr: 0x7CA4, symBinAddr: 0xC834, symSize: 0x4C }
  - { offset: 0x47CE9, size: 0x8, addend: 0x0, symName: __ZN4pyo38internal5state13SuspendAttach3new17h8b77d6c2c2eb5443E, symObjAddr: 0x7CF0, symBinAddr: 0xC880, symSize: 0x40 }
  - { offset: 0x47D1A, size: 0x8, addend: 0x0, symName: __ZN4pyo38internal5state15ForbidAttaching4bail17h8603601f52470b61E, symObjAddr: 0x7DD8, symBinAddr: 0x464A0, symSize: 0x50 }
  - { offset: 0x47F52, size: 0x8, addend: 0x0, symName: '__ZN79_$LT$pyo3..types..string..PyString$u20$as$u20$pyo3..type_object..PyTypeInfo$GT$10is_type_of17h4af0f1dfe17e2535E', symObjAddr: 0x6694, symBinAddr: 0xD618, symSize: 0x30 }
  - { offset: 0x47F7E, size: 0x8, addend: 0x0, symName: '__ZN79_$LT$pyo3..types..string..PyString$u20$as$u20$pyo3..type_object..PyTypeInfo$GT$15type_object_raw17h18d77fbbd7f2c018E', symObjAddr: 0x66C4, symBinAddr: 0xD648, symSize: 0x24 }
  - { offset: 0x47FBA, size: 0x8, addend: 0x0, symName: '__ZN79_$LT$pyo3..types..string..PyString$u20$as$u20$pyo3..type_object..PyTypeInfo$GT$15type_object_raw28_$u7b$$u7b$closure$u7d$$u7d$17h325b4da53f163a79E', symObjAddr: 0x66E8, symBinAddr: 0xD66C, symSize: 0x18 }
  - { offset: 0x48077, size: 0x8, addend: 0x0, symName: '__ZN81_$LT$pyo3..types..typeobject..PyType$u20$as$u20$pyo3..type_object..PyTypeInfo$GT$10is_type_of17h6bd3f0e4851783d4E', symObjAddr: 0x6A48, symBinAddr: 0xD684, symSize: 0x30 }
  - { offset: 0x480A3, size: 0x8, addend: 0x0, symName: '__ZN81_$LT$pyo3..types..typeobject..PyType$u20$as$u20$pyo3..type_object..PyTypeInfo$GT$15type_object_raw17hdf552a8664f5ee38E', symObjAddr: 0x6A78, symBinAddr: 0xD6B4, symSize: 0x24 }
  - { offset: 0x480DF, size: 0x8, addend: 0x0, symName: '__ZN81_$LT$pyo3..types..typeobject..PyType$u20$as$u20$pyo3..type_object..PyTypeInfo$GT$15type_object_raw28_$u7b$$u7b$closure$u7d$$u7d$17h42ea4a7f2eb95b62E', symObjAddr: 0x6A9C, symBinAddr: 0xD6D8, symSize: 0x18 }
  - { offset: 0x48179, size: 0x8, addend: 0x0, symName: '__ZN75_$LT$pyo3..types..none..PyNone$u20$as$u20$pyo3..type_object..PyTypeInfo$GT$15type_object_raw17hc5c792e07797a00cE', symObjAddr: 0x61A0, symBinAddr: 0xD588, symSize: 0x20 }
  - { offset: 0x4863D, size: 0x8, addend: 0x0, symName: '__ZN79_$LT$pyo3..exceptions..PyTypeError$u20$as$u20$pyo3..type_object..PyTypeInfo$GT$15type_object_raw17h3e5fb557c8e3c47fE', symObjAddr: 0x64FC, symBinAddr: 0xD5A8, symSize: 0x24 }
  - { offset: 0x48679, size: 0x8, addend: 0x0, symName: '__ZN79_$LT$pyo3..exceptions..PyTypeError$u20$as$u20$pyo3..type_object..PyTypeInfo$GT$15type_object_raw28_$u7b$$u7b$closure$u7d$$u7d$17h7f0310659e80a8fbE', symObjAddr: 0x6520, symBinAddr: 0xD5CC, symSize: 0x4C }
  - { offset: 0x486CC, size: 0x8, addend: 0x0, symName: '__ZN83_$LT$pyo3..exceptions..PyBaseException$u20$as$u20$pyo3..type_object..PyTypeInfo$GT$15type_object_raw17h03227d18fb6ea9d2E', symObjAddr: 0x6BC4, symBinAddr: 0xD6F0, symSize: 0x24 }
  - { offset: 0x48708, size: 0x8, addend: 0x0, symName: '__ZN83_$LT$pyo3..exceptions..PyBaseException$u20$as$u20$pyo3..type_object..PyTypeInfo$GT$15type_object_raw28_$u7b$$u7b$closure$u7d$$u7d$17hfccad38348546f5bE', symObjAddr: 0x6BE8, symBinAddr: 0xD714, symSize: 0x4C }
  - { offset: 0x4875B, size: 0x8, addend: 0x0, symName: '__ZN84_$LT$pyo3..exceptions..PyAttributeError$u20$as$u20$pyo3..type_object..PyTypeInfo$GT$15type_object_raw17hc5e0f1ab5f2751a6E', symObjAddr: 0x6D74, symBinAddr: 0xD760, symSize: 0x24 }
  - { offset: 0x48797, size: 0x8, addend: 0x0, symName: '__ZN84_$LT$pyo3..exceptions..PyAttributeError$u20$as$u20$pyo3..type_object..PyTypeInfo$GT$15type_object_raw28_$u7b$$u7b$closure$u7d$$u7d$17hcb083b68e2ac0b3fE', symObjAddr: 0x6D98, symBinAddr: 0xD784, symSize: 0x4C }
  - { offset: 0x488A7, size: 0x8, addend: 0x0, symName: __ZN4pyo311type_object10PyTypeInfo11type_object17h6ffcaad60aa18b4cE, symObjAddr: 0x4504, symBinAddr: 0xD2B8, symSize: 0x30 }
  - { offset: 0x488E7, size: 0x8, addend: 0x0, symName: __ZN4pyo311type_object10PyTypeInfo11type_object17h9bf40825a32cf31fE, symObjAddr: 0x4594, symBinAddr: 0xD2E8, symSize: 0x30 }
  - { offset: 0x48927, size: 0x8, addend: 0x0, symName: __ZN4pyo311type_object10PyTypeInfo11type_object17hb0dc4e08b1dddaa0E, symObjAddr: 0x4654, symBinAddr: 0xD318, symSize: 0x30 }
  - { offset: 0x48967, size: 0x8, addend: 0x0, symName: __ZN4pyo311type_object10PyTypeInfo11type_object17hb7d09365c094d514E, symObjAddr: 0x46B4, symBinAddr: 0xD348, symSize: 0x30 }
  - { offset: 0x489A7, size: 0x8, addend: 0x0, symName: __ZN4pyo311type_object10PyTypeInfo11type_object17hbc6593ec6d78c114E, symObjAddr: 0x46E4, symBinAddr: 0xD378, symSize: 0x30 }
  - { offset: 0x489E7, size: 0x8, addend: 0x0, symName: __ZN4pyo311type_object10PyTypeInfo11type_object17he5bd624aaa54f099E, symObjAddr: 0x4804, symBinAddr: 0xD3A8, symSize: 0x30 }
  - { offset: 0x48A2D, size: 0x8, addend: 0x0, symName: '__ZN52_$LT$T$u20$as$u20$pyo3..type_object..PyTypeCheck$GT$10type_check17hf4446a8268dda328E', symObjAddr: 0x5BBC, symBinAddr: 0xD500, symSize: 0x24 }
  - { offset: 0x48A62, size: 0x8, addend: 0x0, symName: '__ZN52_$LT$T$u20$as$u20$pyo3..type_object..PyTypeCheck$GT$10type_check17hf86f20b32bcbef75E', symObjAddr: 0x5BE0, symBinAddr: 0xD524, symSize: 0x24 }
  - { offset: 0x48A97, size: 0x8, addend: 0x0, symName: '__ZN52_$LT$T$u20$as$u20$pyo3..type_object..PyTypeCheck$GT$16classinfo_object17h4b319d1138151295E', symObjAddr: 0x5C64, symBinAddr: 0xD548, symSize: 0x20 }
  - { offset: 0x48AD7, size: 0x8, addend: 0x0, symName: '__ZN52_$LT$T$u20$as$u20$pyo3..type_object..PyTypeCheck$GT$16classinfo_object17h557abc18718f7ea8E', symObjAddr: 0x5C84, symBinAddr: 0xD568, symSize: 0x20 }
  - { offset: 0x4A0F2, size: 0x8, addend: 0x0, symName: __ZN4core5slice3raw14from_raw_parts17hd367926b4d81f096E, symObjAddr: 0xDB0, symBinAddr: 0xD128, symSize: 0x58 }
  - { offset: 0x4A13A, size: 0x8, addend: 0x0, symName: __ZN4core5slice3raw14from_raw_parts18precondition_check17ha6742db50fe859a5E, symObjAddr: 0xE08, symBinAddr: 0xD180, symSize: 0x10C }
  - { offset: 0x4B108, size: 0x8, addend: 0x0, symName: '__ZN9once_cell4sync17OnceCell$LT$T$GT$11get_or_init28_$u7b$$u7b$closure$u7d$$u7d$17hae85ee7e904c2ac9E', symObjAddr: 0x773C, symBinAddr: 0xD85C, symSize: 0x34 }
  - { offset: 0x4B14A, size: 0x8, addend: 0x0, symName: '__ZN9once_cell4sync17OnceCell$LT$T$GT$11get_or_init28_$u7b$$u7b$closure$u7d$$u7d$17hf92ac5232e54f21bE', symObjAddr: 0x7770, symBinAddr: 0xD890, symSize: 0x38 }
  - { offset: 0x4B351, size: 0x8, addend: 0x0, symName: '__ZN3std3sys4sync5mutex7pthread5Mutex3get28_$u7b$$u7b$closure$u7d$$u7d$17h3921534a35cf202aE', symObjAddr: 0xB04, symBinAddr: 0xD034, symSize: 0xF4 }
  - { offset: 0x4BA1A, size: 0x8, addend: 0x0, symName: __ZN4pyo310exceptions11PyTypeError7new_err17hae614b8fe3907845E, symObjAddr: 0x123C, symBinAddr: 0xD28C, symSize: 0x2C }
  - { offset: 0x4BA8D, size: 0x8, addend: 0x0, symName: __ZN4pyo35types10typeobject6PyType22from_borrowed_type_ptr17h71530e1be07518e3E, symObjAddr: 0x48BC, symBinAddr: 0xD3D8, symSize: 0x34 }
  - { offset: 0x4BAE9, size: 0x8, addend: 0x0, symName: __ZN4pyo35types6string8PyString3new17hf60cf96070fc87a9E, symObjAddr: 0x584C, symBinAddr: 0xD40C, symSize: 0x68 }
  - { offset: 0x4BB5E, size: 0x8, addend: 0x0, symName: __ZN4pyo35types6string8PyString6intern17hdaf2325f1215805eE, symObjAddr: 0x58B4, symBinAddr: 0xD474, symSize: 0x8C }
  - { offset: 0x4BC31, size: 0x8, addend: 0x0, symName: '__ZN9once_cell4sync17OnceCell$LT$T$GT$11get_or_init17h094fd0dfe81afa8cE', symObjAddr: 0x76B0, symBinAddr: 0xD7D0, symSize: 0x44 }
  - { offset: 0x4BC90, size: 0x8, addend: 0x0, symName: '__ZN9once_cell4sync17OnceCell$LT$T$GT$11get_or_init17h50ed2c274b392987E', symObjAddr: 0x76F4, symBinAddr: 0xD814, symSize: 0x48 }
  - { offset: 0x4BCD5, size: 0x8, addend: 0x0, symName: '__ZN9once_cell4sync17OnceCell$LT$T$GT$13get_unchecked17h395cdfbf8767c986E', symObjAddr: 0x77A8, symBinAddr: 0xD8C8, symSize: 0x24 }
  - { offset: 0x4BD01, size: 0x8, addend: 0x0, symName: '__ZN9once_cell4sync17OnceCell$LT$T$GT$13get_unchecked17h7c23d1a182294b97E', symObjAddr: 0x77CC, symBinAddr: 0xD8EC, symSize: 0x24 }
  - { offset: 0x4BD2D, size: 0x8, addend: 0x0, symName: '__ZN9once_cell4sync17OnceCell$LT$T$GT$15get_or_try_init17h0a8ad291215649b6E', symObjAddr: 0x785C, symBinAddr: 0xD910, symSize: 0x150 }
  - { offset: 0x4BD9E, size: 0x8, addend: 0x0, symName: '__ZN9once_cell4sync17OnceCell$LT$T$GT$15get_or_try_init17h9222f413815d2199E', symObjAddr: 0x80D8, symBinAddr: 0xDA60, symSize: 0x14C }
  - { offset: 0x4BE02, size: 0x8, addend: 0x0, symName: '__ZN9once_cell4sync17OnceCell$LT$T$GT$3get17h01b772c5ebe76bf8E', symObjAddr: 0x83EC, symBinAddr: 0xDBAC, symSize: 0x4C }
  - { offset: 0x4BE2E, size: 0x8, addend: 0x0, symName: '__ZN9once_cell4sync17OnceCell$LT$T$GT$3get17h1d8fd80bda778f24E', symObjAddr: 0x84D0, symBinAddr: 0xDBF8, symSize: 0x4C }
  - { offset: 0x4D232, size: 0x8, addend: 0x0, symName: '__ZN31_$LT$dyn$u20$core..any..Any$GT$12downcast_ref17h63e7b6701cac9dc1E', symObjAddr: 0x298, symBinAddr: 0xDC44, symSize: 0xA4 }
  - { offset: 0x4D323, size: 0x8, addend: 0x0, symName: '__ZN31_$LT$dyn$u20$core..any..Any$GT$12downcast_ref17hc8c3a7b5757f8719E', symObjAddr: 0x33C, symBinAddr: 0xDCE8, symSize: 0xA4 }
  - { offset: 0x4D48E, size: 0x8, addend: 0x0, symName: '__ZN54_$LT$dyn$u20$core..any..Any$u2b$core..marker..Send$GT$12downcast_ref17h1253dc48a56d8f10E', symObjAddr: 0x7F64, symBinAddr: 0xDDD4, symSize: 0x2C }
  - { offset: 0x4D4C5, size: 0x8, addend: 0x0, symName: '__ZN54_$LT$dyn$u20$core..any..Any$u2b$core..marker..Send$GT$12downcast_ref17hd291190d92e808ffE', symObjAddr: 0x7F90, symBinAddr: 0xDE00, symSize: 0x2C }
  - { offset: 0x4E4E9, size: 0x8, addend: 0x0, symName: __ZN8pyo3_ffi11tupleobject13PyTuple_Check17h499353be85e43d90E, symObjAddr: 0x8450, symBinAddr: 0xDE2C, symSize: 0x30 }
  - { offset: 0x4EB30, size: 0x8, addend: 0x0, symName: __ZN3std6thread6thread6Thread2id17hda360eb359b9560cE, symObjAddr: 0x3E0, symBinAddr: 0xDD8C, symSize: 0x1C }
  - { offset: 0x4EC5B, size: 0x8, addend: 0x0, symName: __ZN4pyo35impl_8pymodule9ModuleDef16init_multi_phase17hc3731f0190110f73E, symObjAddr: 0x4AE4, symBinAddr: 0xDDA8, symSize: 0x2C }
  - { offset: 0x4ED16, size: 0x8, addend: 0x0, symName: '__ZN127_$LT$pyo3..instance..Bound$LT$pyo3..types..traceback..PyTraceback$GT$$u20$as$u20$pyo3..types..traceback..PyTracebackMethods$GT$6format8INTERNED17h27fde3dd7ba9f1c9E', symObjAddr: 0x8CB8, symBinAddr: 0x70408, symSize: 0x0 }
  - { offset: 0x4ED30, size: 0x8, addend: 0x0, symName: '__ZN127_$LT$pyo3..instance..Bound$LT$pyo3..types..traceback..PyTraceback$GT$$u20$as$u20$pyo3..types..traceback..PyTracebackMethods$GT$6format8INTERNED17h7f5f552f2824ffa9E', symObjAddr: 0x8CD8, symBinAddr: 0x70428, symSize: 0x0 }
  - { offset: 0x4ED4A, size: 0x8, addend: 0x0, symName: '__ZN127_$LT$pyo3..instance..Bound$LT$pyo3..types..traceback..PyTraceback$GT$$u20$as$u20$pyo3..types..traceback..PyTracebackMethods$GT$6format8INTERNED17he7ca5e6b2595a154E', symObjAddr: 0x8CF8, symBinAddr: 0x70448, symSize: 0x0 }
  - { offset: 0x50ECB, size: 0x8, addend: 0x0, symName: '__ZN4core3ptr101drop_in_place$LT$core..result..Result$LT$alloc..borrow..Cow$LT$str$GT$$C$$RF$pyo3..err..PyErr$GT$$GT$17ha829c76670050f6bE', symObjAddr: 0x1AAC, symBinAddr: 0xE66C, symSize: 0x4C }
  - { offset: 0x50EFA, size: 0x8, addend: 0x0, symName: '__ZN4core3ptr101drop_in_place$LT$std..sys..sync..once_box..OnceBox$LT$std..sys..pal..unix..sync..mutex..Mutex$GT$$GT$17h56c590961a221292E', symObjAddr: 0x1B64, symBinAddr: 0xE6B8, symSize: 0x24 }
  - { offset: 0x50F29, size: 0x8, addend: 0x0, symName: '__ZN4core3ptr104drop_in_place$LT$core..option..Option$LT$pyo3..instance..Py$LT$pyo3..types..string..PyString$GT$$GT$$GT$17hbf10c1d2e9446dbcE', symObjAddr: 0x1C64, symBinAddr: 0xE6DC, symSize: 0x44 }
  - { offset: 0x50F58, size: 0x8, addend: 0x0, symName: '__ZN4core3ptr106drop_in_place$LT$alloc..vec..Vec$LT$core..ptr..non_null..NonNull$LT$pyo3_ffi..object..PyObject$GT$$GT$$GT$17ha9bc6a06f9da31f1E', symObjAddr: 0x1CA8, symBinAddr: 0xE720, symSize: 0x5C }
  - { offset: 0x50F87, size: 0x8, addend: 0x0, symName: '__ZN4core3ptr106drop_in_place$LT$core..option..Option$LT$pyo3..instance..Py$LT$pyo3..types..typeobject..PyType$GT$$GT$$GT$17hbd3c6d6d17d4fb49E', symObjAddr: 0x1D04, symBinAddr: 0xE77C, symSize: 0x44 }
  - { offset: 0x50FB6, size: 0x8, addend: 0x0, symName: '__ZN4core3ptr107drop_in_place$LT$core..option..Option$LT$pyo3..instance..Bound$LT$pyo3..types..string..PyString$GT$$GT$$GT$17h46f2d2b382952244E', symObjAddr: 0x1D6C, symBinAddr: 0xE7C0, symSize: 0x44 }
  - { offset: 0x50FE5, size: 0x8, addend: 0x0, symName: '__ZN4core3ptr107drop_in_place$LT$core..pin..Pin$LT$alloc..boxed..Box$LT$std..sys..pal..unix..sync..mutex..Mutex$GT$$GT$$GT$17h91a4d5409b45f443E', symObjAddr: 0x1DB0, symBinAddr: 0xE804, symSize: 0x24 }
  - { offset: 0x51014, size: 0x8, addend: 0x0, symName: '__ZN4core3ptr109drop_in_place$LT$core..iter..adapters..enumerate..Enumerate$LT$pyo3..types..tuple..BoundTupleIterator$GT$$GT$17he9fd66b19a619aa3E', symObjAddr: 0x1EC0, symBinAddr: 0xE828, symSize: 0x24 }
  - { offset: 0x51043, size: 0x8, addend: 0x0, symName: '__ZN4core3ptr109drop_in_place$LT$core..option..Option$LT$pyo3..instance..Bound$LT$pyo3..types..typeobject..PyType$GT$$GT$$GT$17h7ddca115f3ac861fE', symObjAddr: 0x1EE4, symBinAddr: 0xE84C, symSize: 0x44 }
  - { offset: 0x51072, size: 0x8, addend: 0x0, symName: '__ZN4core3ptr110drop_in_place$LT$core..option..Option$LT$pyo3..instance..Py$LT$pyo3..types..traceback..PyTraceback$GT$$GT$$GT$17hb056ec17159312c7E', symObjAddr: 0x1F4C, symBinAddr: 0xE890, symSize: 0x44 }
  - { offset: 0x510A1, size: 0x8, addend: 0x0, symName: '__ZN4core3ptr111drop_in_place$LT$core..option..Option$LT$pyo3..instance..Bound$LT$pyo3..exceptions..PyBaseException$GT$$GT$$GT$17hd6d8e1501254e8daE', symObjAddr: 0x1FB4, symBinAddr: 0xE8D4, symSize: 0x44 }
  - { offset: 0x510D0, size: 0x8, addend: 0x0, symName: '__ZN4core3ptr113drop_in_place$LT$alloc..raw_vec..RawVec$LT$core..ptr..non_null..NonNull$LT$pyo3_ffi..object..PyObject$GT$$GT$$GT$17hcac12068ed881828E', symObjAddr: 0x20D8, symBinAddr: 0xE918, symSize: 0x24 }
  - { offset: 0x510FF, size: 0x8, addend: 0x0, symName: '__ZN4core3ptr113drop_in_place$LT$core..option..Option$LT$pyo3..instance..Bound$LT$pyo3..types..traceback..PyTraceback$GT$$GT$$GT$17h667b670e222049ffE', symObjAddr: 0x20FC, symBinAddr: 0xE93C, symSize: 0x44 }
  - { offset: 0x5112E, size: 0x8, addend: 0x0, symName: '__ZN4core3ptr113drop_in_place$LT$std..sync..poison..mutex..Mutex$LT$core..option..Option$LT$std..thread..id..ThreadId$GT$$GT$$GT$17hc45caaf9793fe2d8E', symObjAddr: 0x2164, symBinAddr: 0xE980, symSize: 0x24 }
  - { offset: 0x5115D, size: 0x8, addend: 0x0, symName: '__ZN4core3ptr116drop_in_place$LT$core..cell..UnsafeCell$LT$core..option..Option$LT$pyo3..err..err_state..PyErrStateInner$GT$$GT$$GT$17h6dd2a862ba5d0a94E', symObjAddr: 0x21D0, symBinAddr: 0xE9A4, symSize: 0x24 }
  - { offset: 0x5118C, size: 0x8, addend: 0x0, symName: '__ZN4core3ptr118drop_in_place$LT$core..array..iter..IntoIter$LT$pyo3..instance..Bound$LT$pyo3..types..any..PyAny$GT$$C$1_usize$GT$$GT$17hd8fe5cb0d8dfc162E', symObjAddr: 0x23A0, symBinAddr: 0xE9C8, symSize: 0x24 }
  - { offset: 0x511BB, size: 0x8, addend: 0x0, symName: '__ZN4core3ptr118drop_in_place$LT$std..sync..poison..mutex..MutexGuard$LT$core..option..Option$LT$std..thread..id..ThreadId$GT$$GT$$GT$17h820415f3f57403aaE', symObjAddr: 0x23E8, symBinAddr: 0xE9EC, symSize: 0x24 }
  - { offset: 0x511EA, size: 0x8, addend: 0x0, symName: '__ZN4core3ptr122drop_in_place$LT$alloc..vec..into_iter..IntoIter$LT$core..ptr..non_null..NonNull$LT$pyo3_ffi..object..PyObject$GT$$GT$$GT$17h413f71b1458a040fE', symObjAddr: 0x24E4, symBinAddr: 0xEA10, symSize: 0x24 }
  - { offset: 0x51219, size: 0x8, addend: 0x0, symName: '__ZN4core3ptr126drop_in_place$LT$core..result..Result$LT$pyo3..instance..Bound$LT$pyo3..types..string..PyString$GT$$C$pyo3..err..PyErr$GT$$GT$17hf051788af0d04237E', symObjAddr: 0x258C, symBinAddr: 0xEA34, symSize: 0x50 }
  - { offset: 0x51248, size: 0x8, addend: 0x0, symName: '__ZN4core3ptr135drop_in_place$LT$core..option..Option$LT$core..pin..Pin$LT$alloc..boxed..Box$LT$std..sys..pal..unix..sync..mutex..Mutex$GT$$GT$$GT$$GT$17h4f0f6aae01c89655E', symObjAddr: 0x2734, symBinAddr: 0xEA84, symSize: 0x44 }
  - { offset: 0x51277, size: 0x8, addend: 0x0, symName: '__ZN4core3ptr141drop_in_place$LT$pyo3..err..PyErr..new$LT$pyo3..panic..PanicException$C$$LP$alloc..string..String$C$$RP$$GT$..$u7b$$u7b$closure$u7d$$u7d$$GT$17h8a79c16b8a805d3fE', symObjAddr: 0x2A20, symBinAddr: 0xEAC8, symSize: 0x24 }
  - { offset: 0x512A6, size: 0x8, addend: 0x0, symName: '__ZN4core3ptr144drop_in_place$LT$core..result..Result$LT$$RF$pyo3..instance..Bound$LT$pyo3..types..tuple..PyTuple$GT$$C$pyo3..err..cast_error..CastError$GT$$GT$17hcf8a1f878c4028b0E', symObjAddr: 0x2AF0, symBinAddr: 0xEAEC, symSize: 0x44 }
  - { offset: 0x512D5, size: 0x8, addend: 0x0, symName: '__ZN4core3ptr148drop_in_place$LT$core..result..Result$LT$$RF$pyo3..instance..Bound$LT$pyo3..types..typeobject..PyType$GT$$C$pyo3..err..cast_error..CastError$GT$$GT$17h409e9d964bd4b6a0E', symObjAddr: 0x2C68, symBinAddr: 0xEB30, symSize: 0x44 }
  - { offset: 0x51304, size: 0x8, addend: 0x0, symName: '__ZN4core3ptr150drop_in_place$LT$std..sync..poison..mutex..MutexGuard$LT$alloc..vec..Vec$LT$core..ptr..non_null..NonNull$LT$pyo3_ffi..object..PyObject$GT$$GT$$GT$$GT$17h3c459ab52df38dbdE', symObjAddr: 0x2CD0, symBinAddr: 0xEB74, symSize: 0x24 }
  - { offset: 0x51333, size: 0x8, addend: 0x0, symName: '__ZN4core3ptr152drop_in_place$LT$pyo3..err..PyErr..new$LT$pyo3..exceptions..PyTypeError$C$pyo3..err..cast_error..CastErrorArguments$GT$..$u7b$$u7b$closure$u7d$$u7d$$GT$17hb95275a04a96f0b7E', symObjAddr: 0x2D5C, symBinAddr: 0xEB98, symSize: 0x24 }
  - { offset: 0x51362, size: 0x8, addend: 0x0, symName: '__ZN4core3ptr156drop_in_place$LT$std..sync..poison..PoisonError$LT$std..sync..poison..mutex..MutexGuard$LT$core..option..Option$LT$std..thread..id..ThreadId$GT$$GT$$GT$$GT$17h18f9d83332ee4c0bE', symObjAddr: 0x2E04, symBinAddr: 0xEBBC, symSize: 0x24 }
  - { offset: 0x51391, size: 0x8, addend: 0x0, symName: '__ZN4core3ptr157drop_in_place$LT$pyo3..err..err_state..PyErrState..make_normalized..$u7b$$u7b$closure$u7d$$u7d$..$u7b$$u7b$closure$u7d$$u7d$..$u7b$$u7b$closure$u7d$$u7d$$GT$17h85b77bbe185e464cE', symObjAddr: 0x2E28, symBinAddr: 0xEBE0, symSize: 0x24 }
  - { offset: 0x513C0, size: 0x8, addend: 0x0, symName: '__ZN4core3ptr168drop_in_place$LT$core..iter..adapters..enumerate..Enumerate$LT$core..array..iter..IntoIter$LT$pyo3..instance..Bound$LT$pyo3..types..any..PyAny$GT$$C$1_usize$GT$$GT$$GT$17h253919f51c97db5cE', symObjAddr: 0x2E94, symBinAddr: 0xEC04, symSize: 0x24 }
  - { offset: 0x513EF, size: 0x8, addend: 0x0, symName: '__ZN4core3ptr188drop_in_place$LT$std..sync..poison..PoisonError$LT$std..sync..poison..mutex..MutexGuard$LT$alloc..vec..Vec$LT$core..ptr..non_null..NonNull$LT$pyo3_ffi..object..PyObject$GT$$GT$$GT$$GT$$GT$17hf04460a7226c0f49E', symObjAddr: 0x2F00, symBinAddr: 0xEC28, symSize: 0x24 }
  - { offset: 0x5141E, size: 0x8, addend: 0x0, symName: '__ZN4core3ptr192drop_in_place$LT$core..array..iter..iter_inner..PolymorphicIter$LT$$u5b$core..mem..maybe_uninit..MaybeUninit$LT$pyo3..instance..Bound$LT$pyo3..types..any..PyAny$GT$$GT$$u3b$$u20$1$u5d$$GT$$GT$17hdff4a4ff33651a9fE', symObjAddr: 0x2F24, symBinAddr: 0xEC4C, symSize: 0x24 }
  - { offset: 0x5144D, size: 0x8, addend: 0x0, symName: '__ZN4core3ptr216drop_in_place$LT$$LT$alloc..vec..into_iter..IntoIter$LT$T$C$A$GT$$u20$as$u20$core..ops..drop..Drop$GT$..drop..DropGuard$LT$core..ptr..non_null..NonNull$LT$pyo3_ffi..object..PyObject$GT$$C$alloc..alloc..Global$GT$$GT$17h2138e97fe180152aE', symObjAddr: 0x2FFC, symBinAddr: 0xEC70, symSize: 0x24 }
  - { offset: 0x5147C, size: 0x8, addend: 0x0, symName: '__ZN4core3ptr219drop_in_place$LT$pyo3..sync..once_lock..init_once_cell_py_attached$LT$pyo3..sync..Interned..get..$u7b$$u7b$closure$u7d$$u7d$$C$pyo3..instance..Py$LT$pyo3..types..string..PyString$GT$$GT$..$u7b$$u7b$closure$u7d$$u7d$$GT$17h37c38503d9de41d9E', symObjAddr: 0x3020, symBinAddr: 0xEC94, symSize: 0x24 }
  - { offset: 0x514AB, size: 0x8, addend: 0x0, symName: '__ZN4core3ptr236drop_in_place$LT$alloc..boxed..Box$LT$dyn$u20$core..ops..function..FnOnce$LT$$LP$pyo3..marker..Python$C$$RP$$GT$$u2b$Output$u20$$u3d$$u20$pyo3..err..err_state..PyErrStateLazyFnOutput$u2b$core..marker..Send$u2b$core..marker..Sync$GT$$GT$17hb48ba5e51e71de81E', symObjAddr: 0x3044, symBinAddr: 0xECB8, symSize: 0x80 }
  - { offset: 0x514DA, size: 0x8, addend: 0x0, symName: '__ZN4core3ptr289drop_in_place$LT$pyo3..sync..once_lock..init_once_cell_py_attached$LT$$LT$pyo3..panic..PanicException$u20$as$u20$pyo3..type_object..PyTypeInfo$GT$..type_object_raw..$u7b$$u7b$closure$u7d$$u7d$$C$pyo3..instance..Py$LT$pyo3..types..typeobject..PyType$GT$$GT$..$u7b$$u7b$closure$u7d$$u7d$$GT$17h0f3690df57854d2dE', symObjAddr: 0x3154, symBinAddr: 0xED38, symSize: 0x24 }
  - { offset: 0x51509, size: 0x8, addend: 0x0, symName: '__ZN4core3ptr357drop_in_place$LT$once_cell..sync..OnceCell$LT$pyo3..instance..Py$LT$pyo3..types..string..PyString$GT$$GT$..get_or_init$LT$pyo3..sync..once_lock..init_once_cell_py_attached$LT$pyo3..sync..Interned..get..$u7b$$u7b$closure$u7d$$u7d$$C$pyo3..instance..Py$LT$pyo3..types..string..PyString$GT$$GT$..$u7b$$u7b$closure$u7d$$u7d$$GT$..$u7b$$u7b$closure$u7d$$u7d$$GT$17h83efd531f116f470E', symObjAddr: 0x335C, symBinAddr: 0xED5C, symSize: 0x24 }
  - { offset: 0x51538, size: 0x8, addend: 0x0, symName: '__ZN4core3ptr37drop_in_place$LT$pyo3..err..PyErr$GT$17hbb0e67e7fc5f8299E', symObjAddr: 0x3380, symBinAddr: 0xED80, symSize: 0x24 }
  - { offset: 0x51567, size: 0x8, addend: 0x0, symName: '__ZN4core3ptr385drop_in_place$LT$core..option..Option$LT$once_cell..sync..OnceCell$LT$pyo3..instance..Py$LT$pyo3..types..string..PyString$GT$$GT$..get_or_init$LT$pyo3..sync..once_lock..init_once_cell_py_attached$LT$pyo3..sync..Interned..get..$u7b$$u7b$closure$u7d$$u7d$$C$pyo3..instance..Py$LT$pyo3..types..string..PyString$GT$$GT$..$u7b$$u7b$closure$u7d$$u7d$$GT$..$u7b$$u7b$closure$u7d$$u7d$$GT$$GT$17h88af54bbd176c6f3E', symObjAddr: 0x33A4, symBinAddr: 0xEDA4, symSize: 0x44 }
  - { offset: 0x51596, size: 0x8, addend: 0x0, symName: '__ZN4core3ptr429drop_in_place$LT$once_cell..sync..OnceCell$LT$pyo3..instance..Py$LT$pyo3..types..typeobject..PyType$GT$$GT$..get_or_init$LT$pyo3..sync..once_lock..init_once_cell_py_attached$LT$$LT$pyo3..panic..PanicException$u20$as$u20$pyo3..type_object..PyTypeInfo$GT$..type_object_raw..$u7b$$u7b$closure$u7d$$u7d$$C$pyo3..instance..Py$LT$pyo3..types..typeobject..PyType$GT$$GT$..$u7b$$u7b$closure$u7d$$u7d$$GT$..$u7b$$u7b$closure$u7d$$u7d$$GT$17hcaad091bf0c9b567E', symObjAddr: 0x3430, symBinAddr: 0xEDE8, symSize: 0x24 }
  - { offset: 0x515C5, size: 0x8, addend: 0x0, symName: '__ZN4core3ptr42drop_in_place$LT$alloc..string..String$GT$17h7d8680de9f7e424aE', symObjAddr: 0x3454, symBinAddr: 0xEE0C, symSize: 0x24 }
  - { offset: 0x515F4, size: 0x8, addend: 0x0, symName: '__ZN4core3ptr457drop_in_place$LT$core..option..Option$LT$once_cell..sync..OnceCell$LT$pyo3..instance..Py$LT$pyo3..types..typeobject..PyType$GT$$GT$..get_or_init$LT$pyo3..sync..once_lock..init_once_cell_py_attached$LT$$LT$pyo3..panic..PanicException$u20$as$u20$pyo3..type_object..PyTypeInfo$GT$..type_object_raw..$u7b$$u7b$closure$u7d$$u7d$$C$pyo3..instance..Py$LT$pyo3..types..typeobject..PyType$GT$$GT$..$u7b$$u7b$closure$u7d$$u7d$$GT$..$u7b$$u7b$closure$u7d$$u7d$$GT$$GT$17h81a31e9e45f40bdbE', symObjAddr: 0x34E4, symBinAddr: 0xEE30, symSize: 0x44 }
  - { offset: 0x51623, size: 0x8, addend: 0x0, symName: '__ZN4core3ptr46drop_in_place$LT$alloc..vec..Vec$LT$u8$GT$$GT$17h3e07f63c5f028a06E', symObjAddr: 0x3528, symBinAddr: 0xEE74, symSize: 0x5C }
  - { offset: 0x51652, size: 0x8, addend: 0x0, symName: '__ZN4core3ptr50drop_in_place$LT$alloc..borrow..Cow$LT$str$GT$$GT$17hc5e0f441bae5142eE', symObjAddr: 0x36B8, symBinAddr: 0xEED0, symSize: 0x48 }
  - { offset: 0x51681, size: 0x8, addend: 0x0, symName: '__ZN4core3ptr50drop_in_place$LT$pyo3..impl_..panic..PanicTrap$GT$17ha4fa17b388afda00E', symObjAddr: 0x375C, symBinAddr: 0xEF18, symSize: 0x24 }
  - { offset: 0x516B0, size: 0x8, addend: 0x0, symName: '__ZN4core3ptr53drop_in_place$LT$$LP$alloc..string..String$C$$RP$$GT$17h71d107419e412d99E', symObjAddr: 0x37DC, symBinAddr: 0xEF3C, symSize: 0x24 }
  - { offset: 0x516DF, size: 0x8, addend: 0x0, symName: '__ZN4core3ptr53drop_in_place$LT$alloc..raw_vec..RawVec$LT$u8$GT$$GT$17hab7672d76fb97f65E', symObjAddr: 0x3800, symBinAddr: 0xEF60, symSize: 0x24 }
  - { offset: 0x5170E, size: 0x8, addend: 0x0, symName: '__ZN4core3ptr53drop_in_place$LT$pyo3..err..cast_error..CastError$GT$17he4b44a7cfa5d557cE', symObjAddr: 0x3824, symBinAddr: 0xEF84, symSize: 0x24 }
  - { offset: 0x5173D, size: 0x8, addend: 0x0, symName: '__ZN4core3ptr53drop_in_place$LT$pyo3..err..err_state..PyErrState$GT$17h77eeae83c0655f9cE', symObjAddr: 0x3848, symBinAddr: 0xEFA8, symSize: 0x5C }
  - { offset: 0x5176C, size: 0x8, addend: 0x0, symName: '__ZN4core3ptr55drop_in_place$LT$pyo3..internal..state..AttachGuard$GT$17h05f0299c85e6edb4E', symObjAddr: 0x38C8, symBinAddr: 0xF004, symSize: 0x60 }
  - { offset: 0x5179B, size: 0x8, addend: 0x0, symName: '__ZN4core3ptr57drop_in_place$LT$pyo3..internal..state..SuspendAttach$GT$17h61be805888934741E', symObjAddr: 0x3970, symBinAddr: 0xF064, symSize: 0x24 }
  - { offset: 0x517CA, size: 0x8, addend: 0x0, symName: '__ZN4core3ptr58drop_in_place$LT$pyo3..err..err_state..PyErrStateInner$GT$17ha419d32e83a5ee6bE', symObjAddr: 0x3A08, symBinAddr: 0xF088, symSize: 0x54 }
  - { offset: 0x517F9, size: 0x8, addend: 0x0, symName: '__ZN4core3ptr58drop_in_place$LT$std..sys..sync..mutex..pthread..Mutex$GT$17ha4ab7325ee60c09aE', symObjAddr: 0x3A5C, symBinAddr: 0xF0DC, symSize: 0x5C }
  - { offset: 0x51828, size: 0x8, addend: 0x0, symName: '__ZN4core3ptr59drop_in_place$LT$pyo3..types..tuple..BoundTupleIterator$GT$17h0a2c771cac559096E', symObjAddr: 0x3AB8, symBinAddr: 0xF138, symSize: 0x24 }
  - { offset: 0x51857, size: 0x8, addend: 0x0, symName: '__ZN4core3ptr60drop_in_place$LT$std..sys..pal..unix..sync..mutex..Mutex$GT$17h0b68b5bd97595c3aE', symObjAddr: 0x3ADC, symBinAddr: 0xF15C, symSize: 0x24 }
  - { offset: 0x51886, size: 0x8, addend: 0x0, symName: '__ZN4core3ptr62drop_in_place$LT$pyo3..err..cast_error..CastErrorArguments$GT$17h3ea9d45306cbdeceE', symObjAddr: 0x3B24, symBinAddr: 0xF180, symSize: 0x60 }
  - { offset: 0x518B5, size: 0x8, addend: 0x0, symName: '__ZN4core3ptr63drop_in_place$LT$pyo3..err..err_state..PyErrStateNormalized$GT$17h406d68e3471a4f3cE', symObjAddr: 0x3BA8, symBinAddr: 0xF1E0, symSize: 0x90 }
  - { offset: 0x518E4, size: 0x8, addend: 0x0, symName: '__ZN4core3ptr70drop_in_place$LT$core..option..Option$LT$alloc..string..String$GT$$GT$17h4f7504cfac02a312E', symObjAddr: 0x3EBC, symBinAddr: 0xF270, symSize: 0x48 }
  - { offset: 0x51913, size: 0x8, addend: 0x0, symName: '__ZN4core3ptr70drop_in_place$LT$pyo3..instance..Py$LT$pyo3..types..any..PyAny$GT$$GT$17hc0db457738307207E', symObjAddr: 0x3F60, symBinAddr: 0xF2B8, symSize: 0x24 }
  - { offset: 0x51942, size: 0x8, addend: 0x0, symName: '__ZN4core3ptr73drop_in_place$LT$pyo3..instance..Bound$LT$pyo3..types..any..PyAny$GT$$GT$17h350b864d500ebf0aE', symObjAddr: 0x4120, symBinAddr: 0xF2DC, symSize: 0x24 }
  - { offset: 0x51971, size: 0x8, addend: 0x0, symName: '__ZN4core3ptr75drop_in_place$LT$core..result..Result$LT$$RF$str$C$pyo3..err..PyErr$GT$$GT$17h36bc7d2224b2d257E', symObjAddr: 0x41E8, symBinAddr: 0xF300, symSize: 0x40 }
  - { offset: 0x519A0, size: 0x8, addend: 0x0, symName: '__ZN4core3ptr75drop_in_place$LT$pyo3..instance..Bound$LT$pyo3..types..list..PyList$GT$$GT$17he219a8004538068dE', symObjAddr: 0x4270, symBinAddr: 0xF340, symSize: 0x24 }
  - { offset: 0x519CF, size: 0x8, addend: 0x0, symName: '__ZN4core3ptr76drop_in_place$LT$pyo3..instance..Py$LT$pyo3..types..string..PyString$GT$$GT$17h77fe1510a0b54f6dE', symObjAddr: 0x42F8, symBinAddr: 0xF364, symSize: 0x24 }
  - { offset: 0x519FE, size: 0x8, addend: 0x0, symName: '__ZN4core3ptr77drop_in_place$LT$pyo3..instance..Bound$LT$pyo3..types..bytes..PyBytes$GT$$GT$17hb8780ab531269dd8E', symObjAddr: 0x431C, symBinAddr: 0xF388, symSize: 0x24 }
  - { offset: 0x51A2D, size: 0x8, addend: 0x0, symName: '__ZN4core3ptr77drop_in_place$LT$pyo3..instance..Bound$LT$pyo3..types..tuple..PyTuple$GT$$GT$17h555cc1b1d6610d21E', symObjAddr: 0x4364, symBinAddr: 0xF3AC, symSize: 0x24 }
  - { offset: 0x51A5C, size: 0x8, addend: 0x0, symName: '__ZN4core3ptr78drop_in_place$LT$pyo3..instance..Py$LT$pyo3..types..typeobject..PyType$GT$$GT$17hbc929db2dfa7bae3E', symObjAddr: 0x4440, symBinAddr: 0xF3D0, symSize: 0x24 }
  - { offset: 0x51A8B, size: 0x8, addend: 0x0, symName: '__ZN4core3ptr79drop_in_place$LT$pyo3..instance..Bound$LT$pyo3..types..module..PyModule$GT$$GT$17h7346374f6f11e413E', symObjAddr: 0x45D0, symBinAddr: 0xF3F4, symSize: 0x24 }
  - { offset: 0x51ABA, size: 0x8, addend: 0x0, symName: '__ZN4core3ptr79drop_in_place$LT$pyo3..instance..Bound$LT$pyo3..types..string..PyString$GT$$GT$17h82fa2b05ee1615beE', symObjAddr: 0x45F4, symBinAddr: 0xF418, symSize: 0x24 }
  - { offset: 0x51AE9, size: 0x8, addend: 0x0, symName: '__ZN4core3ptr80drop_in_place$LT$pyo3..instance..Py$LT$pyo3..exceptions..PyBaseException$GT$$GT$17he01d0af083aae1d6E', symObjAddr: 0x4684, symBinAddr: 0xF43C, symSize: 0x24 }
  - { offset: 0x51B18, size: 0x8, addend: 0x0, symName: '__ZN4core3ptr81drop_in_place$LT$pyo3..instance..Bound$LT$pyo3..types..typeobject..PyType$GT$$GT$17h8017832da35386f3E', symObjAddr: 0x46F0, symBinAddr: 0xF460, symSize: 0x24 }
  - { offset: 0x51B47, size: 0x8, addend: 0x0, symName: '__ZN4core3ptr82drop_in_place$LT$pyo3..instance..Py$LT$pyo3..types..traceback..PyTraceback$GT$$GT$17h402a80dc2b298cc3E', symObjAddr: 0x4714, symBinAddr: 0xF484, symSize: 0x24 }
  - { offset: 0x51B76, size: 0x8, addend: 0x0, symName: '__ZN4core3ptr83drop_in_place$LT$$u5b$pyo3..instance..Bound$LT$pyo3..types..any..PyAny$GT$$u5d$$GT$17hfbff86b870a92863E', symObjAddr: 0x4738, symBinAddr: 0xF4A8, symSize: 0xB4 }
  - { offset: 0x51BA5, size: 0x8, addend: 0x0, symName: '__ZN4core3ptr83drop_in_place$LT$pyo3..instance..Bound$LT$pyo3..exceptions..PyBaseException$GT$$GT$17h7bbd52a4db2f2201E', symObjAddr: 0x47EC, symBinAddr: 0xF55C, symSize: 0x24 }
  - { offset: 0x51BD4, size: 0x8, addend: 0x0, symName: '__ZN4core3ptr84drop_in_place$LT$pyo3..instance..Bound$LT$pyo3..types..function..PyCFunction$GT$$GT$17h108e2c3edf648a99E', symObjAddr: 0x4834, symBinAddr: 0xF580, symSize: 0x24 }
  - { offset: 0x51C03, size: 0x8, addend: 0x0, symName: '__ZN4core3ptr85drop_in_place$LT$alloc..boxed..Box$LT$std..sys..pal..unix..sync..mutex..Mutex$GT$$GT$17hf6e045222db815d0E', symObjAddr: 0x4858, symBinAddr: 0xF5A4, symSize: 0x60 }
  - { offset: 0x51C32, size: 0x8, addend: 0x0, symName: '__ZN4core3ptr85drop_in_place$LT$pyo3..instance..Bound$LT$pyo3..types..traceback..PyTraceback$GT$$GT$17hd3947dd96b9e3cc4E', symObjAddr: 0x496C, symBinAddr: 0xF604, symSize: 0x24 }
  - { offset: 0x51C61, size: 0x8, addend: 0x0, symName: '__ZN4core3ptr86drop_in_place$LT$core..option..Option$LT$pyo3..err..err_state..PyErrStateInner$GT$$GT$17hef6968a4d335d2c3E', symObjAddr: 0x49D8, symBinAddr: 0xF628, symSize: 0x40 }
  - { offset: 0x51C90, size: 0x8, addend: 0x0, symName: '__ZN4core3ptr91drop_in_place$LT$alloc..boxed..Box$LT$dyn$u20$core..any..Any$u2b$core..marker..Send$GT$$GT$17h25ceb5a565464335E', symObjAddr: 0x4ACC, symBinAddr: 0xF668, symSize: 0x80 }
  - { offset: 0x51CBF, size: 0x8, addend: 0x0, symName: '__ZN4core3ptr94drop_in_place$LT$$u5b$pyo3..instance..Bound$LT$pyo3..types..any..PyAny$GT$$u3b$$u20$1$u5d$$GT$17h2a392304ce93057aE', symObjAddr: 0x4C94, symBinAddr: 0xF6E8, symSize: 0xA4 }
  - { offset: 0x51CEE, size: 0x8, addend: 0x0, symName: '__ZN4core3ptr98drop_in_place$LT$pyo3..err..err_state..PyErrStateNormalized..take..$u7b$$u7b$closure$u7d$$u7d$$GT$17he438f759ace11cdaE', symObjAddr: 0x4F38, symBinAddr: 0xF78C, symSize: 0x60 }
  - { offset: 0x52545, size: 0x8, addend: 0x0, symName: '__ZN4core3ops8function6FnOnce40call_once$u7b$$u7b$vtable.shim$u7d$$u7d$17h0511e39e237b1bcbE', symObjAddr: 0x75C, symBinAddr: 0xE0F0, symSize: 0x30 }
  - { offset: 0x52585, size: 0x8, addend: 0x0, symName: '__ZN4core3ops8function6FnOnce40call_once$u7b$$u7b$vtable.shim$u7d$$u7d$17h3cf2a2ccebeae9b7E', symObjAddr: 0x964, symBinAddr: 0xE120, symSize: 0x30 }
  - { offset: 0x525C9, size: 0x8, addend: 0x0, symName: '__ZN4core3ops8function6FnOnce40call_once$u7b$$u7b$vtable.shim$u7d$$u7d$17h3ea6a8b89f213900E', symObjAddr: 0x9BC, symBinAddr: 0xE150, symSize: 0x30 }
  - { offset: 0x52609, size: 0x8, addend: 0x0, symName: '__ZN4core3ops8function6FnOnce40call_once$u7b$$u7b$vtable.shim$u7d$$u7d$17h492f6c0005a62c63E', symObjAddr: 0x9EC, symBinAddr: 0xE180, symSize: 0x30 }
  - { offset: 0x52649, size: 0x8, addend: 0x0, symName: '__ZN4core3ops8function6FnOnce40call_once$u7b$$u7b$vtable.shim$u7d$$u7d$17h5c0d0e2d38e7e6f8E', symObjAddr: 0xAF0, symBinAddr: 0xE1B0, symSize: 0x30 }
  - { offset: 0x52689, size: 0x8, addend: 0x0, symName: '__ZN4core3ops8function6FnOnce40call_once$u7b$$u7b$vtable.shim$u7d$$u7d$17h5f3df0949284018cE', symObjAddr: 0xB44, symBinAddr: 0xE1E0, symSize: 0x24 }
  - { offset: 0x526CD, size: 0x8, addend: 0x0, symName: '__ZN4core3ops8function6FnOnce40call_once$u7b$$u7b$vtable.shim$u7d$$u7d$17h850e1886aa0d1e30E', symObjAddr: 0xC00, symBinAddr: 0xE204, symSize: 0x24 }
  - { offset: 0x52711, size: 0x8, addend: 0x0, symName: '__ZN4core3ops8function6FnOnce40call_once$u7b$$u7b$vtable.shim$u7d$$u7d$17h872e1a55e755820aE', symObjAddr: 0xC48, symBinAddr: 0xE228, symSize: 0x24 }
  - { offset: 0x52755, size: 0x8, addend: 0x0, symName: '__ZN4core3ops8function6FnOnce40call_once$u7b$$u7b$vtable.shim$u7d$$u7d$17h8ff50f850ccf0094E', symObjAddr: 0xCB4, symBinAddr: 0xE24C, symSize: 0x30 }
  - { offset: 0x52799, size: 0x8, addend: 0x0, symName: '__ZN4core3ops8function6FnOnce40call_once$u7b$$u7b$vtable.shim$u7d$$u7d$17h9362d18d0b79f68bE', symObjAddr: 0xD04, symBinAddr: 0xE27C, symSize: 0x30 }
  - { offset: 0x527D9, size: 0x8, addend: 0x0, symName: __ZN4core3ops8function6FnOnce9call_once17h0fa2fccf62865d41E, symObjAddr: 0x1098, symBinAddr: 0xE2AC, symSize: 0x4C }
  - { offset: 0x52819, size: 0x8, addend: 0x0, symName: __ZN4core3ops8function6FnOnce9call_once17h1e5b326954101e1bE, symObjAddr: 0x117C, symBinAddr: 0xE2F8, symSize: 0x24 }
  - { offset: 0x5285D, size: 0x8, addend: 0x0, symName: __ZN4core3ops8function6FnOnce9call_once17h27ea561662a5825cE, symObjAddr: 0x11C4, symBinAddr: 0xE31C, symSize: 0x24 }
  - { offset: 0x528A1, size: 0x8, addend: 0x0, symName: __ZN4core3ops8function6FnOnce9call_once17h3436c620f965783aE, symObjAddr: 0x1230, symBinAddr: 0xE340, symSize: 0x2C }
  - { offset: 0x528E5, size: 0x8, addend: 0x0, symName: __ZN4core3ops8function6FnOnce9call_once17h4e5fea7326974585E, symObjAddr: 0x125C, symBinAddr: 0xE36C, symSize: 0x4C }
  - { offset: 0x52925, size: 0x8, addend: 0x0, symName: __ZN4core3ops8function6FnOnce9call_once17h519d79590c4dc05cE, symObjAddr: 0x12A8, symBinAddr: 0xE3B8, symSize: 0x40 }
  - { offset: 0x5296A, size: 0x8, addend: 0x0, symName: __ZN4core3ops8function6FnOnce9call_once17h6a37e6c8060dff1bE, symObjAddr: 0x1340, symBinAddr: 0xE3F8, symSize: 0x40 }
  - { offset: 0x529AF, size: 0x8, addend: 0x0, symName: __ZN4core3ops8function6FnOnce9call_once17h9b7eba98fbe0de22E, symObjAddr: 0x1518, symBinAddr: 0xE438, symSize: 0x2C }
  - { offset: 0x529F3, size: 0x8, addend: 0x0, symName: __ZN4core3ops8function6FnOnce9call_once17h9c30563686588f42E, symObjAddr: 0x1544, symBinAddr: 0xE464, symSize: 0x24 }
  - { offset: 0x52A37, size: 0x8, addend: 0x0, symName: __ZN4core3ops8function6FnOnce9call_once17hb3864bd866a9d0d4E, symObjAddr: 0x1688, symBinAddr: 0xE488, symSize: 0x4C }
  - { offset: 0x52A77, size: 0x8, addend: 0x0, symName: __ZN4core3ops8function6FnOnce9call_once17hb7b4af033948bcadE, symObjAddr: 0x16F8, symBinAddr: 0xE4D4, symSize: 0x24 }
  - { offset: 0x52ABB, size: 0x8, addend: 0x0, symName: __ZN4core3ops8function6FnOnce9call_once17hb8c3a0ff0b666d04E, symObjAddr: 0x171C, symBinAddr: 0xE4F8, symSize: 0x24 }
  - { offset: 0x52AFF, size: 0x8, addend: 0x0, symName: __ZN4core3ops8function6FnOnce9call_once17hd23d5ee73a12d1fcE, symObjAddr: 0x1790, symBinAddr: 0xE51C, symSize: 0x4C }
  - { offset: 0x52B43, size: 0x8, addend: 0x0, symName: __ZN4core3ops8function6FnOnce9call_once17hd3055be882729583E, symObjAddr: 0x17DC, symBinAddr: 0xE568, symSize: 0x24 }
  - { offset: 0x52B87, size: 0x8, addend: 0x0, symName: __ZN4core3ops8function6FnOnce9call_once17hd5640b16130b4cdeE, symObjAddr: 0x181C, symBinAddr: 0xE58C, symSize: 0x4C }
  - { offset: 0x52BC7, size: 0x8, addend: 0x0, symName: __ZN4core3ops8function6FnOnce9call_once17hf36d4f88a0c58d4eE, symObjAddr: 0x1950, symBinAddr: 0xE5D8, symSize: 0x4C }
  - { offset: 0x52C07, size: 0x8, addend: 0x0, symName: __ZN4core3ops8function6FnOnce9call_once17hf3d22caa68012cbaE, symObjAddr: 0x199C, symBinAddr: 0xE624, symSize: 0x2C }
  - { offset: 0x52C4B, size: 0x8, addend: 0x0, symName: __ZN4core3ops8function6FnOnce9call_once17hfa9bffa7b0245023E, symObjAddr: 0x1A08, symBinAddr: 0xE650, symSize: 0x1C }
  - { offset: 0x52CA6, size: 0x8, addend: 0x0, symName: '__ZN118_$LT$$u5b$core..mem..maybe_uninit..MaybeUninit$LT$T$GT$$u5d$$u20$as$u20$core..array..iter..iter_inner..PartialDrop$GT$12partial_drop17ha0de1c4ed90126c7E', symObjAddr: 0x338, symBinAddr: 0xDF98, symSize: 0xA0 }
  - { offset: 0x52DA6, size: 0x8, addend: 0x0, symName: '__ZN129_$LT$$u5b$core..mem..maybe_uninit..MaybeUninit$LT$T$GT$$u3b$$u20$N$u5d$$u20$as$u20$core..array..iter..iter_inner..PartialDrop$GT$12partial_drop17hf9df556401a92a7dE', symObjAddr: 0x470, symBinAddr: 0xE038, symSize: 0x4C }
  - { offset: 0x53AD4, size: 0x8, addend: 0x0, symName: __ZN8pyo3_ffi13unicodeobject15PyUnicode_Check17h8904dabf776df4beE, symObjAddr: 0x7BC0, symBinAddr: 0xF91C, symSize: 0x30 }
  - { offset: 0x544F1, size: 0x8, addend: 0x0, symName: '__ZN103_$LT$alloc..vec..into_iter..IntoIter$LT$T$C$A$GT$$u20$as$u20$core..iter..traits..iterator..Iterator$GT$4next17hd1370fcf91fc20a6E', symObjAddr: 0xA8, symBinAddr: 0xDE5C, symSize: 0x88 }
  - { offset: 0x5464B, size: 0x8, addend: 0x0, symName: '__ZN103_$LT$alloc..vec..into_iter..IntoIter$LT$T$C$A$GT$$u20$as$u20$core..iter..traits..iterator..Iterator$GT$9size_hint17h74f18cd8f505e375E', symObjAddr: 0x130, symBinAddr: 0xDEE4, symSize: 0xB4 }
  - { offset: 0x54774, size: 0x8, addend: 0x0, symName: '__ZN157_$LT$$LT$alloc..vec..into_iter..IntoIter$LT$T$C$A$GT$$u20$as$u20$core..ops..drop..Drop$GT$..drop..DropGuard$LT$T$C$A$GT$$u20$as$u20$core..ops..drop..Drop$GT$4drop17hed874fdc5bd70b45E', symObjAddr: 0x528, symBinAddr: 0xE084, symSize: 0x6C }
  - { offset: 0x548E0, size: 0x8, addend: 0x0, symName: '__ZN86_$LT$alloc..vec..into_iter..IntoIter$LT$T$C$A$GT$$u20$as$u20$core..ops..drop..Drop$GT$4drop17h82effcc72db95016E', symObjAddr: 0x75BC, symBinAddr: 0xF8B8, symSize: 0x64 }
  - { offset: 0x54FDF, size: 0x8, addend: 0x0, symName: '__ZN5alloc3vec9into_iter21IntoIter$LT$T$C$A$GT$16as_raw_mut_slice17h8e08d28e08a68349E', symObjAddr: 0x6E7C, symBinAddr: 0xF7EC, symSize: 0xCC }
  - { offset: 0x5846D, size: 0x8, addend: 0x0, symName: '__ZN84_$LT$std..sys..sync..once_box..OnceBox$LT$T$GT$$u20$as$u20$core..ops..drop..Drop$GT$4drop17h5dcb3cb1704b2f63E', symObjAddr: 0x3FA0, symBinAddr: 0xFBC8, symSize: 0x74 }
  - { offset: 0x58B62, size: 0x8, addend: 0x0, symName: '__ZN5alloc3vec16Vec$LT$T$C$A$GT$7set_len18precondition_check17hb1f43c395dececbaE', symObjAddr: 0x3418, symBinAddr: 0xFA40, symSize: 0x60 }
  - { offset: 0x58CD7, size: 0x8, addend: 0x0, symName: '__ZN67_$LT$alloc..vec..Vec$LT$T$GT$$u20$as$u20$core..default..Default$GT$7default17h0ae70429f6372804E', symObjAddr: 0x3D68, symBinAddr: 0xFB90, symSize: 0x14 }
  - { offset: 0x58CF9, size: 0x8, addend: 0x0, symName: '__ZN67_$LT$alloc..vec..Vec$LT$T$GT$$u20$as$u20$core..default..Default$GT$7default17h0ae70429f6372804E', symObjAddr: 0x3D68, symBinAddr: 0xFB90, symSize: 0x14 }
  - { offset: 0x58D1A, size: 0x8, addend: 0x0, symName: '__ZN70_$LT$alloc..vec..Vec$LT$T$C$A$GT$$u20$as$u20$core..ops..drop..Drop$GT$4drop17hb9c62fc1a567e152E', symObjAddr: 0x3E58, symBinAddr: 0xFBA4, symSize: 0x24 }
  - { offset: 0x58DD0, size: 0x8, addend: 0x0, symName: '__ZN90_$LT$alloc..vec..Vec$LT$T$C$A$GT$$u20$as$u20$core..iter..traits..collect..IntoIterator$GT$9into_iter17haf3bdae3eb916318E', symObjAddr: 0x41E8, symBinAddr: 0xFC3C, symSize: 0xA8 }
  - { offset: 0x5937A, size: 0x8, addend: 0x0, symName: '__ZN3std3sys4sync8once_box16OnceBox$LT$T$GT$10initialize17ha72b2a3f1c9a7075E', symObjAddr: 0xB70, symBinAddr: 0x464F0, symSize: 0xD8 }
  - { offset: 0x59551, size: 0x8, addend: 0x0, symName: '__ZN3std3sys4sync8once_box16OnceBox$LT$T$GT$11get_or_init17hbf3a8002b289a96fE', symObjAddr: 0xC48, symBinAddr: 0xF94C, symSize: 0xB4 }
  - { offset: 0x59739, size: 0x8, addend: 0x0, symName: '__ZN5alloc3vec12Vec$LT$T$GT$3new17he5041c9efc202e1bE', symObjAddr: 0x1A4C, symBinAddr: 0xFA00, symSize: 0x14 }
  - { offset: 0x597AB, size: 0x8, addend: 0x0, symName: '__ZN5alloc3vec16Vec$LT$T$C$A$GT$4push17hf22050d117caf3e0E', symObjAddr: 0x3058, symBinAddr: 0xFA14, symSize: 0x2C }
  - { offset: 0x5982E, size: 0x8, addend: 0x0, symName: '__ZN5alloc3vec16Vec$LT$T$C$A$GT$8is_empty17h82c66ceb105762f1E', symObjAddr: 0x3498, symBinAddr: 0xFAA0, symSize: 0x20 }
  - { offset: 0x59995, size: 0x8, addend: 0x0, symName: '__ZN5alloc3vec16Vec$LT$T$C$A$GT$8push_mut17h325bb0226416adfcE', symObjAddr: 0x3518, symBinAddr: 0xFAC0, symSize: 0xD0 }
  - { offset: 0x59F8F, size: 0x8, addend: 0x0, symName: '__ZN63_$LT$alloc..alloc..Global$u20$as$u20$core..alloc..Allocator$GT$10deallocate17h698942f94684901dE', symObjAddr: 0x79CC, symBinAddr: 0x11934, symSize: 0x58 }
  - { offset: 0x5A05E, size: 0x8, addend: 0x0, symName: __ZN5alloc5alloc15exchange_malloc17h5675c00c14f1d904E, symObjAddr: 0x743C, symBinAddr: 0x116F0, symSize: 0xB0 }
  - { offset: 0x5A370, size: 0x8, addend: 0x0, symName: __ZN5alloc3fmt6format17h502dd21f78d47414E, symObjAddr: 0x7334, symBinAddr: 0x115E8, symSize: 0xD8 }
  - { offset: 0x5A434, size: 0x8, addend: 0x0, symName: '__ZN5alloc3fmt6format28_$u7b$$u7b$closure$u7d$$u7d$17h43c435804bcba07bE', symObjAddr: 0x740C, symBinAddr: 0x116C0, symSize: 0x30 }
  - { offset: 0x5A9AD, size: 0x8, addend: 0x0, symName: __ZN4core3ptr9alignment9Alignment13new_unchecked18precondition_check17h945a46444b55f5b1E, symObjAddr: 0x8B0, symBinAddr: 0xFE0C, symSize: 0x70 }
  - { offset: 0x5C310, size: 0x8, addend: 0x0, symName: '__ZN47_$LT$$LP$$RP$$u20$as$u20$core..unit..IsUnit$GT$7is_unit17hc1698b7dc14b4754E', symObjAddr: 0x61C, symBinAddr: 0xFCE4, symSize: 0xC }
  - { offset: 0x5C53F, size: 0x8, addend: 0x0, symName: '__ZN50_$LT$T$u20$as$u20$core..convert..Into$LT$U$GT$$GT$4into17ha59b8a3cfb8e5b30E', symObjAddr: 0x6B9C, symBinAddr: 0x10E60, symSize: 0x30 }
  - { offset: 0x5D809, size: 0x8, addend: 0x0, symName: '__ZN4pyo33err5PyErr3new28_$u7b$$u7b$closure$u7d$$u7d$17h07c558e22cd2798fE', symObjAddr: 0x384C, symBinAddr: 0x105B0, symSize: 0xC8 }
  - { offset: 0x5D861, size: 0x8, addend: 0x0, symName: '__ZN4pyo33err5PyErr3new28_$u7b$$u7b$closure$u7d$$u7d$17h47dcf1620ac91200E', symObjAddr: 0x4160, symBinAddr: 0x10678, symSize: 0xD4 }
  - { offset: 0x5D8BA, size: 0x8, addend: 0x0, symName: '__ZN4pyo33err5PyErr3new28_$u7b$$u7b$closure$u7d$$u7d$17hb57aeb4c9cc6c817E', symObjAddr: 0x4834, symBinAddr: 0x1074C, symSize: 0xC0 }
  - { offset: 0x5D918, size: 0x8, addend: 0x0, symName: '__ZN4pyo33err5PyErr22print_panic_and_unwind28_$u7b$$u7b$closure$u7d$$u7d$17h73bb3d2eb39137ebE', symObjAddr: 0x1FCC, symBinAddr: 0x102EC, symSize: 0x64 }
  - { offset: 0x5D94E, size: 0x8, addend: 0x0, symName: '__ZN4pyo33err5PyErr22print_panic_and_unwind28_$u7b$$u7b$closure$u7d$$u7d$17hd0b5b0563f12662dE', symObjAddr: 0x2030, symBinAddr: 0x10350, symSize: 0x7C }
  - { offset: 0x5D9C2, size: 0x8, addend: 0x0, symName: '__ZN4pyo33err10cast_error106_$LT$impl$u20$core..convert..From$LT$pyo3..err..cast_error..CastError$GT$$u20$for$u20$pyo3..err..PyErr$GT$4from17h02f374cfc9fae43eE', symObjAddr: 0xAF0, symBinAddr: 0xFE7C, symSize: 0xE0 }
  - { offset: 0x5DA11, size: 0x8, addend: 0x0, symName: '__ZN4pyo33err10cast_error110_$LT$impl$u20$core..convert..From$LT$pyo3..err..cast_error..CastIntoError$GT$$u20$for$u20$pyo3..err..PyErr$GT$4from17hd9c1f4e859c134b9E', symObjAddr: 0xBD0, symBinAddr: 0xFF5C, symSize: 0xF8 }
  - { offset: 0x5DACA, size: 0x8, addend: 0x0, symName: '__ZN47_$LT$T$u20$as$u20$pyo3..err..PyErrArguments$GT$9arguments17he4643f3a265f7eb6E', symObjAddr: 0x668, symBinAddr: 0xFCF0, symSize: 0x11C }
  - { offset: 0x5DB83, size: 0x8, addend: 0x0, symName: __ZN4pyo33err15failed_to_fetch17h73cbf68183f0985dE, symObjAddr: 0xEA4, symBinAddr: 0x465C8, symSize: 0x18 }
  - { offset: 0x5DBA1, size: 0x8, addend: 0x0, symName: __ZN4pyo33err17error_on_minusone17ha0f13d6edddd6726E, symObjAddr: 0x104C, symBinAddr: 0x10054, symSize: 0xC8 }
  - { offset: 0x5DBF8, size: 0x8, addend: 0x0, symName: '__ZN53_$LT$pyo3..err..PyErr$u20$as$u20$core..fmt..Debug$GT$3fmt17h468af246c1a5ee68E', symObjAddr: 0x6BCC, symBinAddr: 0x10E90, symSize: 0x40 }
  - { offset: 0x5DC3A, size: 0x8, addend: 0x0, symName: '__ZN53_$LT$pyo3..err..PyErr$u20$as$u20$core..fmt..Debug$GT$3fmt28_$u7b$$u7b$closure$u7d$$u7d$17h937f0efc4edd5712E', symObjAddr: 0x6C0C, symBinAddr: 0x10ED0, symSize: 0x178 }
  - { offset: 0x5DC9E, size: 0x8, addend: 0x0, symName: '__ZN53_$LT$pyo3..err..PyErr$u20$as$u20$core..fmt..Debug$GT$3fmt28_$u7b$$u7b$closure$u7d$$u7d$28_$u7b$$u7b$closure$u7d$$u7d$17h74644dfcf0e2dfbcE', symObjAddr: 0x6D84, symBinAddr: 0x11048, symSize: 0x1A0 }
  - { offset: 0x5DD94, size: 0x8, addend: 0x0, symName: '__ZN55_$LT$pyo3..err..PyErr$u20$as$u20$core..fmt..Display$GT$3fmt17h3a99cb74be20d627E', symObjAddr: 0x6F24, symBinAddr: 0x111E8, symSize: 0x34 }
  - { offset: 0x5DDD6, size: 0x8, addend: 0x0, symName: '__ZN55_$LT$pyo3..err..PyErr$u20$as$u20$core..fmt..Display$GT$3fmt28_$u7b$$u7b$closure$u7d$$u7d$17h19c1339d62083af0E', symObjAddr: 0x6F58, symBinAddr: 0x1121C, symSize: 0x3B0 }
  - { offset: 0x5DF3F, size: 0x8, addend: 0x0, symName: '__ZN55_$LT$pyo3..err..PyErr$u20$as$u20$core..fmt..Display$GT$3fmt28_$u7b$$u7b$closure$u7d$$u7d$28_$u7b$$u7b$closure$u7d$$u7d$17hfe0f255fcbad5c04E', symObjAddr: 0x7308, symBinAddr: 0x115CC, symSize: 0x1C }
  - { offset: 0x5E61D, size: 0x8, addend: 0x0, symName: __ZN4pyo35impl_10pyfunction20create_py_c_function17h156d04e7452bab6dE, symObjAddr: 0x64F8, symBinAddr: 0x10CB8, symSize: 0x1A8 }
  - { offset: 0x5F9A7, size: 0x8, addend: 0x0, symName: __ZN4pyo33err5PyErr10from_state17h9591c872b1894ec6E, symObjAddr: 0x1114, symBinAddr: 0x1011C, symSize: 0x30 }
  - { offset: 0x5F9D8, size: 0x8, addend: 0x0, symName: __ZN4pyo33err5PyErr10normalized17hab5acd168e1ab095E, symObjAddr: 0x142C, symBinAddr: 0x1014C, symSize: 0x24 }
  - { offset: 0x5FA23, size: 0x8, addend: 0x0, symName: __ZN4pyo33err5PyErr11is_instance17h4b8bcc1a7cbdf650E, symObjAddr: 0x1450, symBinAddr: 0x10170, symSize: 0xA0 }
  - { offset: 0x5FAAD, size: 0x8, addend: 0x0, symName: __ZN4pyo33err5PyErr14is_instance_of17h3b495ca3d20e9361E, symObjAddr: 0x1920, symBinAddr: 0x10210, symSize: 0x84 }
  - { offset: 0x5FAF4, size: 0x8, addend: 0x0, symName: __ZN4pyo33err5PyErr16write_unraisable17h1f3d693e51222a45E, symObjAddr: 0x1D40, symBinAddr: 0x10294, symSize: 0x58 }
  - { offset: 0x5FB4F, size: 0x8, addend: 0x0, symName: __ZN4pyo33err5PyErr22print_panic_and_unwind17h5f5e6a75ae3cb1b2E, symObjAddr: 0x1D98, symBinAddr: 0x465E0, symSize: 0x234 }
  - { offset: 0x5FBD1, size: 0x8, addend: 0x0, symName: __ZN4pyo33err5PyErr3new17h2a47e58e959d8c1cE, symObjAddr: 0x23E0, symBinAddr: 0x103CC, symSize: 0xA0 }
  - { offset: 0x5FC30, size: 0x8, addend: 0x0, symName: __ZN4pyo33err5PyErr3new17h8c73b9f1866ed3c6E, symObjAddr: 0x2B48, symBinAddr: 0x1046C, symSize: 0x9C }
  - { offset: 0x5FC8E, size: 0x8, addend: 0x0, symName: __ZN4pyo33err5PyErr3new17hb710953adcc39a12E, symObjAddr: 0x2F2C, symBinAddr: 0x10508, symSize: 0xA8 }
  - { offset: 0x5FCDF, size: 0x8, addend: 0x0, symName: __ZN4pyo33err5PyErr4take17ha59e621661499081E, symObjAddr: 0x55F4, symBinAddr: 0x1080C, symSize: 0x188 }
  - { offset: 0x5FD8C, size: 0x8, addend: 0x0, symName: __ZN4pyo33err5PyErr5fetch17h1447b4efae002112E, symObjAddr: 0x5834, symBinAddr: 0x10994, symSize: 0x3C }
  - { offset: 0x5FDC8, size: 0x8, addend: 0x0, symName: __ZN4pyo33err5PyErr5value17h42f1425c187499f1E, symObjAddr: 0x58AC, symBinAddr: 0x109D0, symSize: 0x2C }
  - { offset: 0x5FE03, size: 0x8, addend: 0x0, symName: __ZN4pyo33err5PyErr7restore17ha4fc16de09ca74e0E, symObjAddr: 0x5A04, symBinAddr: 0x109FC, symSize: 0x38 }
  - { offset: 0x5FE42, size: 0x8, addend: 0x0, symName: __ZN4pyo33err5PyErr8get_type17h1c3dbf73f938e759E, symObjAddr: 0x5A3C, symBinAddr: 0x10A34, symSize: 0x28 }
  - { offset: 0x5FE8A, size: 0x8, addend: 0x0, symName: __ZN4pyo33err5PyErr8new_type17h198e67c40e825dc6E, symObjAddr: 0x5A64, symBinAddr: 0x10A5C, symSize: 0x200 }
  - { offset: 0x5FFC1, size: 0x8, addend: 0x0, symName: __ZN4pyo33err5PyErr9traceback17hec95fd5d37709946E, symObjAddr: 0x5E50, symBinAddr: 0x10C5C, symSize: 0x28 }
  - { offset: 0x60019, size: 0x8, addend: 0x0, symName: __ZN4pyo35impl_10pyfunction13PyFunctionDef20create_py_c_function17h93c8dbc7f2af226fE, symObjAddr: 0x6488, symBinAddr: 0x10C84, symSize: 0x34 }
  - { offset: 0x602C5, size: 0x8, addend: 0x0, symName: __ZN5alloc5alloc6Global18alloc_impl_runtime17h4483095a0127aeb1E, symObjAddr: 0x74EC, symBinAddr: 0x117A0, symSize: 0x194 }
  - { offset: 0x62A6F, size: 0x8, addend: 0x0, symName: '__ZN44_$LT$$RF$T$u20$as$u20$core..fmt..Display$GT$3fmt17hedfea6c243098aecE', symObjAddr: 0x1A30, symBinAddr: 0x11F10, symSize: 0x30 }
  - { offset: 0x63211, size: 0x8, addend: 0x0, symName: '__ZN50_$LT$T$u20$as$u20$core..convert..Into$LT$U$GT$$GT$4into17haee12893cef586a9E', symObjAddr: 0x2C2C, symBinAddr: 0x12074, symSize: 0x14 }
  - { offset: 0x63CF5, size: 0x8, addend: 0x0, symName: __ZN8pyo3_ffi8pyerrors22PyExceptionClass_Check17h3f3db1a8f8fea5bdE, symObjAddr: 0x4758, symBinAddr: 0x123C8, symSize: 0x60 }
  - { offset: 0x644B1, size: 0x8, addend: 0x0, symName: '__ZN77_$LT$alloc..raw_vec..RawVec$LT$T$C$A$GT$$u20$as$u20$core..ops..drop..Drop$GT$4drop17h6e4589f3149d8bb9E', symObjAddr: 0x433C, symBinAddr: 0x12398, symSize: 0x30 }
  - { offset: 0x64591, size: 0x8, addend: 0x0, symName: __ZN5alloc6borrow3Cow8Borrowed17h36a83b9763bef0edE, symObjAddr: 0x2D04, symBinAddr: 0x120FC, symSize: 0x2C }
  - { offset: 0x645C9, size: 0x8, addend: 0x0, symName: '__ZN71_$LT$alloc..borrow..Cow$LT$B$GT$$u20$as$u20$core..ops..deref..Deref$GT$5deref17h992786bbb5f7fbbcE', symObjAddr: 0x3F84, symBinAddr: 0x12320, symSize: 0x78 }
  - { offset: 0x64624, size: 0x8, addend: 0x0, symName: '__ZN66_$LT$alloc..borrow..Cow$LT$B$GT$$u20$as$u20$core..fmt..Display$GT$3fmt17h92333b7de61d7c91E', symObjAddr: 0x38F4, symBinAddr: 0x1229C, symSize: 0x84 }
  - { offset: 0x64899, size: 0x8, addend: 0x0, symName: '__ZN3std6thread5local17LocalKey$LT$T$GT$4with17h0e229b3c26d6a433E', symObjAddr: 0xB2C, symBinAddr: 0x1198C, symSize: 0x48 }
  - { offset: 0x64904, size: 0x8, addend: 0x0, symName: '__ZN3std6thread5local17LocalKey$LT$T$GT$4with17h6197f396e9a7995bE', symObjAddr: 0xC18, symBinAddr: 0x119D4, symSize: 0x4C }
  - { offset: 0x649C4, size: 0x8, addend: 0x0, symName: '__ZN3std6thread5local17LocalKey$LT$T$GT$8try_with17h5b69ba2bbf9f4e3cE', symObjAddr: 0xD7C, symBinAddr: 0x11A20, symSize: 0xD8 }
  - { offset: 0x64B46, size: 0x8, addend: 0x0, symName: '__ZN3std6thread5local17LocalKey$LT$T$GT$8try_with17h68ad029bb6a2477cE', symObjAddr: 0xE54, symBinAddr: 0x11AF8, symSize: 0xD0 }
  - { offset: 0x64CC8, size: 0x8, addend: 0x0, symName: '__ZN3std6thread5local17LocalKey$LT$T$GT$8try_with17h8a6f59dcc203b967E', symObjAddr: 0xF24, symBinAddr: 0x11BC8, symSize: 0xD8 }
  - { offset: 0x64E4A, size: 0x8, addend: 0x0, symName: '__ZN3std6thread5local17LocalKey$LT$T$GT$8try_with17hcfdc3d7566a02c5bE', symObjAddr: 0x10E4, symBinAddr: 0x11CA0, symSize: 0xD8 }
  - { offset: 0x64FCC, size: 0x8, addend: 0x0, symName: '__ZN3std6thread5local17LocalKey$LT$T$GT$8try_with17hf4e25cfebaf27d1bE', symObjAddr: 0x11BC, symBinAddr: 0x11D78, symSize: 0xCC }
  - { offset: 0x6514D, size: 0x8, addend: 0x0, symName: '__ZN3std6thread5local17LocalKey$LT$T$GT$8try_with17hf9ea24625a17f127E', symObjAddr: 0x1288, symBinAddr: 0x11E44, symSize: 0xCC }
  - { offset: 0x652E8, size: 0x8, addend: 0x0, symName: __ZN4core3fmt2rt8Argument11new_display17h337e5cb8ceef45c1E, symObjAddr: 0x1AB8, symBinAddr: 0x11F40, symSize: 0x2C }
  - { offset: 0x6533A, size: 0x8, addend: 0x0, symName: __ZN4core3fmt2rt8Argument11new_display17h3f4c44dcd4f6bdf6E, symObjAddr: 0x1B10, symBinAddr: 0x11F6C, symSize: 0x2C }
  - { offset: 0x6537F, size: 0x8, addend: 0x0, symName: __ZN4core3fmt2rt8Argument11new_display17h4928ff054b21817bE, symObjAddr: 0x1B3C, symBinAddr: 0x11F98, symSize: 0x2C }
  - { offset: 0x653B7, size: 0x8, addend: 0x0, symName: __ZN4core3fmt2rt8Argument11new_display17h512d26bf7caba404E, symObjAddr: 0x1B68, symBinAddr: 0x11FC4, symSize: 0x2C }
  - { offset: 0x653EF, size: 0x8, addend: 0x0, symName: __ZN4core3fmt2rt8Argument11new_display17h72a1bf276252fd00E, symObjAddr: 0x1BEC, symBinAddr: 0x11FF0, symSize: 0x2C }
  - { offset: 0x65475, size: 0x8, addend: 0x0, symName: __ZN4core3fmt2rt8Argument11new_display17hf986d31ba70193b2E, symObjAddr: 0x1CF4, symBinAddr: 0x1201C, symSize: 0x2C }
  - { offset: 0x654BA, size: 0x8, addend: 0x0, symName: __ZN4core3fmt2rt8Argument9new_debug17h8ab02e90079b1bbaE, symObjAddr: 0x1DA4, symBinAddr: 0x12048, symSize: 0x2C }
  - { offset: 0x65503, size: 0x8, addend: 0x0, symName: '__ZN5alloc6borrow12Cow$LT$B$GT$10into_owned17hd17a8861c21d527fE', symObjAddr: 0x2C60, symBinAddr: 0x12088, symSize: 0x74 }
  - { offset: 0x655C7, size: 0x8, addend: 0x0, symName: '__ZN5alloc7raw_vec19RawVec$LT$T$C$A$GT$8grow_one17hd5ab9c587075ca3aE', symObjAddr: 0x312C, symBinAddr: 0x12128, symSize: 0x84 }
  - { offset: 0x65708, size: 0x8, addend: 0x0, symName: '__ZN5alloc7raw_vec20RawVecInner$LT$A$GT$16with_capacity_in17h57bbf6f1466450e0E', symObjAddr: 0x374C, symBinAddr: 0x121AC, symSize: 0xF0 }
  - { offset: 0x65BF6, size: 0x8, addend: 0x0, symName: '__ZN5alloc3str56_$LT$impl$u20$alloc..borrow..ToOwned$u20$for$u20$str$GT$8to_owned17hd62bdb219d4039cfE', symObjAddr: 0x446C, symBinAddr: 0x12B68, symSize: 0x50 }
  - { offset: 0x65E68, size: 0x8, addend: 0x0, symName: '__ZN4core3ptr7mut_ptr31_$LT$impl$u20$$BP$mut$u20$T$GT$7is_null17h75485e9644af3d92E', symObjAddr: 0x1060, symBinAddr: 0x12440, symSize: 0x18 }
  - { offset: 0x661A2, size: 0x8, addend: 0x0, symName: __ZN4core4sync6atomic11atomic_load17h1b83e6470d5a81fbE, symObjAddr: 0x18C8, symBinAddr: 0x12470, symSize: 0xF8 }
  - { offset: 0x661E8, size: 0x8, addend: 0x0, symName: __ZN4core4sync6atomic11atomic_load17hb247c98c06f92db5E, symObjAddr: 0x19C0, symBinAddr: 0x12568, symSize: 0xF8 }
  - { offset: 0x6622E, size: 0x8, addend: 0x0, symName: __ZN4core4sync6atomic23atomic_compare_exchange17hb49c4624dcd875d0E, symObjAddr: 0x2084, symBinAddr: 0x12660, symSize: 0x4B4 }
  - { offset: 0x67098, size: 0x8, addend: 0x0, symName: __ZN4core3str8converts19from_utf8_unchecked17h462e19dffecef3a4E, symObjAddr: 0x115C, symBinAddr: 0x12458, symSize: 0x18 }
  - { offset: 0x67145, size: 0x8, addend: 0x0, symName: __ZN8pyo3_ffi6object10Py_IS_TYPE17h07541574a8d5fd83E, symObjAddr: 0x4CD4, symBinAddr: 0x12CAC, symSize: 0x38 }
  - { offset: 0x6717F, size: 0x8, addend: 0x0, symName: __ZN8pyo3_ffi6object12PyType_Check17h175bdac11877b3e0E, symObjAddr: 0x4D0C, symBinAddr: 0x12CE4, symSize: 0x30 }
  - { offset: 0x671AD, size: 0x8, addend: 0x0, symName: __ZN8pyo3_ffi6object17PyType_HasFeature17h222d7514cf77cedeE, symObjAddr: 0x4D3C, symBinAddr: 0x12D14, symSize: 0x8C }
  - { offset: 0x67208, size: 0x8, addend: 0x0, symName: __ZN8pyo3_ffi6object18PyObject_TypeCheck17h457802f659b0192eE, symObjAddr: 0x4DD4, symBinAddr: 0x12DA0, symSize: 0x70 }
  - { offset: 0x67245, size: 0x8, addend: 0x0, symName: __ZN8pyo3_ffi6object19PyType_FastSubclass17h3eceadb81f1a25a5E, symObjAddr: 0x4E44, symBinAddr: 0x12E10, symSize: 0x28 }
  - { offset: 0x67282, size: 0x8, addend: 0x0, symName: __ZN8pyo3_ffi6object7Py_None17h30f9d666e66b9bafE, symObjAddr: 0x4EA0, symBinAddr: 0x12E38, symSize: 0xC }
  - { offset: 0x672A0, size: 0x8, addend: 0x0, symName: __ZN8pyo3_ffi6object7Py_SIZE17h7413c2d0ab0c2696E, symObjAddr: 0x4EAC, symBinAddr: 0x12E44, symSize: 0x1D4 }
  - { offset: 0x6734E, size: 0x8, addend: 0x0, symName: __ZN8pyo3_ffi6object7Py_TYPE17ha3c0b395164a3d5bE, symObjAddr: 0x5080, symBinAddr: 0x13018, symSize: 0x74 }
  - { offset: 0x67A05, size: 0x8, addend: 0x0, symName: __ZN8pyo3_ffi12methodobject17PyCFunction_NewEx17hc9b3368eafacd67fE, symObjAddr: 0x4C9C, symBinAddr: 0x12C74, symSize: 0x38 }
  - { offset: 0x67E7E, size: 0x8, addend: 0x0, symName: __ZN4pyo310conversion15IntoPyObjectExt17into_bound_py_any17hf8046c4a535cacddE, symObjAddr: 0x2CE8, symBinAddr: 0x12B14, symSize: 0x54 }
  - { offset: 0x67EF5, size: 0x8, addend: 0x0, symName: '__ZN87_$LT$$BP$mut$u20$pyo3_ffi..object..PyObject$u20$as$u20$pyo3..ffi_ptr_ext..FfiPtrExt$GT$12assume_owned17h19f72e75e8af9ad8E', symObjAddr: 0x4BA0, symBinAddr: 0x12BE4, symSize: 0x24 }
  - { offset: 0x67F3A, size: 0x8, addend: 0x0, symName: '__ZN87_$LT$$BP$mut$u20$pyo3_ffi..object..PyObject$u20$as$u20$pyo3..ffi_ptr_ext..FfiPtrExt$GT$19assume_owned_or_err17hd613d2d357da54c0E', symObjAddr: 0x4BE8, symBinAddr: 0x12C08, symSize: 0x24 }
  - { offset: 0x67F7F, size: 0x8, addend: 0x0, symName: '__ZN87_$LT$$BP$mut$u20$pyo3_ffi..object..PyObject$u20$as$u20$pyo3..ffi_ptr_ext..FfiPtrExt$GT$19assume_owned_or_opt17hef6017106078c2b8E', symObjAddr: 0x4C0C, symBinAddr: 0x12C2C, symSize: 0x24 }
  - { offset: 0x67FC4, size: 0x8, addend: 0x0, symName: '__ZN87_$LT$$BP$mut$u20$pyo3_ffi..object..PyObject$u20$as$u20$pyo3..ffi_ptr_ext..FfiPtrExt$GT$25assume_borrowed_unchecked17h6a3263b8376d0c70E', symObjAddr: 0x4C78, symBinAddr: 0x12C50, symSize: 0x24 }
  - { offset: 0x68544, size: 0x8, addend: 0x0, symName: __ZN4core3ffi5c_str4CStr6as_ptr17h339331b457718220E, symObjAddr: 0xCF4, symBinAddr: 0x12428, symSize: 0x18 }
  - { offset: 0x686CC, size: 0x8, addend: 0x0, symName: '__ZN66_$LT$std..thread..id..ThreadId$u20$as$u20$core..cmp..PartialEq$GT$2eq17h7ee4fd96351e7a9eE', symObjAddr: 0x4800, symBinAddr: 0x12BB8, symSize: 0x2C }
  - { offset: 0x68BFC, size: 0x8, addend: 0x0, symName: '__ZN87_$LT$T$u20$as$u20$alloc..slice..$LT$impl$u20$$u5b$T$u5d$$GT$..to_vec_in..ConvertVec$GT$6to_vec17h90b786ff217a9fa8E', symObjAddr: 0x5620, symBinAddr: 0x13D1C, symSize: 0xF4 }
  - { offset: 0x6A725, size: 0x8, addend: 0x0, symName: '__ZN104_$LT$core..ops..index_range..IndexRange$u20$as$u20$core..slice..index..SliceIndex$LT$$u5b$T$u5d$$GT$$GT$17get_unchecked_mut18precondition_check17h0db94ac39bf814d7E', symObjAddr: 0x1178, symBinAddr: 0x13174, symSize: 0x60 }
  - { offset: 0x6A784, size: 0x8, addend: 0x0, symName: '__ZN75_$LT$usize$u20$as$u20$core..slice..index..SliceIndex$LT$$u5b$T$u5d$$GT$$GT$13get_unchecked18precondition_check17hfa2ff744c72f62e8E', symObjAddr: 0x52C4, symBinAddr: 0x13B3C, symSize: 0x60 }
  - { offset: 0x6A812, size: 0x8, addend: 0x0, symName: '__ZN42_$LT$$RF$T$u20$as$u20$core..fmt..Debug$GT$3fmt17ha848ede97774761aE', symObjAddr: 0x15A4, symBinAddr: 0x13314, symSize: 0x30 }
  - { offset: 0x6A918, size: 0x8, addend: 0x0, symName: '__ZN50_$LT$$BP$mut$u20$T$u20$as$u20$core..fmt..Debug$GT$3fmt17h1b4d442f391a3781E', symObjAddr: 0x4EB4, symBinAddr: 0x139D4, symSize: 0x38 }
  - { offset: 0x6A98A, size: 0x8, addend: 0x0, symName: '__ZN54_$LT$$BP$const$u20$T$u20$as$u20$core..fmt..Pointer$GT$3fmt17h8a738406b6aa7795E', symObjAddr: 0x50E8, symBinAddr: 0x13A70, symSize: 0xCC }
  - { offset: 0x6AA21, size: 0x8, addend: 0x0, symName: '__ZN53_$LT$T$u20$as$u20$core..convert..TryInto$LT$U$GT$$GT$8try_into17h88d52d3d933608edE', symObjAddr: 0x5068, symBinAddr: 0x13A50, symSize: 0x20 }
  - { offset: 0x6AC31, size: 0x8, addend: 0x0, symName: '__ZN4pyo34sync8Interned3get28_$u7b$$u7b$closure$u7d$$u7d$17h15e65c05397b7a46E', symObjAddr: 0x2864, symBinAddr: 0x13444, symSize: 0x34 }
  - { offset: 0x6AFC7, size: 0x8, addend: 0x0, symName: '__ZN103_$LT$pyo3..instance..Bound$LT$pyo3..types..any..PyAny$GT$$u20$as$u20$pyo3..types..any..PyAnyMethods$GT$7getattr5inner17hf12b27eb7f7720d8E', symObjAddr: 0xC88, symBinAddr: 0x1308C, symSize: 0x6C }
  - { offset: 0x6B00A, size: 0x8, addend: 0x0, symName: '__ZN103_$LT$pyo3..instance..Bound$LT$pyo3..types..any..PyAny$GT$$u20$as$u20$pyo3..types..any..PyAnyMethods$GT$7setattr5inner17h47b0afac46173edfE', symObjAddr: 0xE5C, symBinAddr: 0x130F8, symSize: 0x7C }
  - { offset: 0x6B070, size: 0x8, addend: 0x0, symName: __ZN4pyo35types6module7__all__8INTERNED17h06303bd5ee1d0d01E, symObjAddr: 0x9C70, symBinAddr: 0x70468, symSize: 0x0 }
  - { offset: 0x6B090, size: 0x8, addend: 0x0, symName: __ZN4pyo35types6module8__name__8INTERNED17h65a774b4a7ef9062E, symObjAddr: 0x9C90, symBinAddr: 0x70488, symSize: 0x0 }
  - { offset: 0x6B141, size: 0x8, addend: 0x0, symName: '__ZN115_$LT$pyo3..instance..Bound$LT$pyo3..types..module..PyModule$GT$$u20$as$u20$pyo3..types..module..PyModuleMethods$GT$3add5inner17h03e23e5af7630823E', symObjAddr: 0x143C, symBinAddr: 0x131D4, symSize: 0x140 }
  - { offset: 0x6B1D0, size: 0x8, addend: 0x0, symName: __ZN4pyo35types6module7__all__17h7f11d81978d37a68E, symObjAddr: 0x2BE4, symBinAddr: 0x134D4, symSize: 0x24 }
  - { offset: 0x6B20A, size: 0x8, addend: 0x0, symName: __ZN4pyo35types6module8__name__17h387526b3c0d07deeE, symObjAddr: 0x31D4, symBinAddr: 0x135F0, symSize: 0x24 }
  - { offset: 0x6B249, size: 0x8, addend: 0x0, symName: '__ZN79_$LT$pyo3..types..module..PyModule$u20$as$u20$pyo3..type_object..PyTypeInfo$GT$10is_type_of17h13fbf883d431d92eE', symObjAddr: 0x5498, symBinAddr: 0x13CB0, symSize: 0x30 }
  - { offset: 0x6B275, size: 0x8, addend: 0x0, symName: '__ZN79_$LT$pyo3..types..module..PyModule$u20$as$u20$pyo3..type_object..PyTypeInfo$GT$15type_object_raw17h7ee0fa4b1a3af6beE', symObjAddr: 0x54C8, symBinAddr: 0x13CE0, symSize: 0x24 }
  - { offset: 0x6B2B1, size: 0x8, addend: 0x0, symName: '__ZN79_$LT$pyo3..types..module..PyModule$u20$as$u20$pyo3..type_object..PyTypeInfo$GT$15type_object_raw28_$u7b$$u7b$closure$u7d$$u7d$17h01876d0ade496ac2E', symObjAddr: 0x54EC, symBinAddr: 0x13D04, symSize: 0x18 }
  - { offset: 0x6B3CA, size: 0x8, addend: 0x0, symName: '__ZN77_$LT$pyo3..panic..PanicException$u20$as$u20$pyo3..type_object..PyTypeInfo$GT$15type_object_raw11TYPE_OBJECT17h5b97de32a27a2898E', symObjAddr: 0x3D978, symBinAddr: 0x70F20, symSize: 0x0 }
  - { offset: 0x6B3EA, size: 0x8, addend: 0x0, symName: '__ZN77_$LT$pyo3..panic..PanicException$u20$as$u20$pyo3..type_object..PyTypeInfo$GT$15type_object_raw28_$u7b$$u7b$closure$u7d$$u7d$17hbd1d6aed1363cbf1E', symObjAddr: 0x53B8, symBinAddr: 0x13BD0, symSize: 0xE0 }
  - { offset: 0x6B422, size: 0x8, addend: 0x0, symName: '__ZN77_$LT$pyo3..panic..PanicException$u20$as$u20$pyo3..type_object..PyTypeInfo$GT$15type_object_raw17h069f1ee60d8f1ba2E', symObjAddr: 0x5384, symBinAddr: 0x13B9C, symSize: 0x34 }
  - { offset: 0x6B986, size: 0x8, addend: 0x0, symName: __ZN4pyo311type_object10PyTypeInfo11type_object17h034fe1420388c9cbE, symObjAddr: 0x1CF8, symBinAddr: 0x13344, symSize: 0x30 }
  - { offset: 0x6B9C6, size: 0x8, addend: 0x0, symName: __ZN4pyo311type_object10PyTypeInfo11type_object17h9064a417b6098f63E, symObjAddr: 0x1D58, symBinAddr: 0x13374, symSize: 0x30 }
  - { offset: 0x6BA06, size: 0x8, addend: 0x0, symName: __ZN4pyo311type_object10PyTypeInfo16is_exact_type_of17h48d5a1ca87789bc4E, symObjAddr: 0x1DE8, symBinAddr: 0x133A4, symSize: 0x58 }
  - { offset: 0x6BA66, size: 0x8, addend: 0x0, symName: '__ZN52_$LT$T$u20$as$u20$pyo3..type_object..PyTypeCheck$GT$10type_check17h76a32a58db2fd013E', symObjAddr: 0x4F30, symBinAddr: 0x13A0C, symSize: 0x24 }
  - { offset: 0x6BA9B, size: 0x8, addend: 0x0, symName: '__ZN52_$LT$T$u20$as$u20$pyo3..type_object..PyTypeCheck$GT$16classinfo_object17hc6f7ecd394f6226eE', symObjAddr: 0x4FE0, symBinAddr: 0x13A30, symSize: 0x20 }
  - { offset: 0x6C9AA, size: 0x8, addend: 0x0, symName: '__ZN9once_cell3imp17OnceCell$LT$T$GT$10initialize28_$u7b$$u7b$closure$u7d$$u7d$17h3b780e6ba49ba8a4E', symObjAddr: 0x7388, symBinAddr: 0x13E10, symSize: 0x1A8 }
  - { offset: 0x6CA48, size: 0x8, addend: 0x0, symName: '__ZN9once_cell3imp17OnceCell$LT$T$GT$10initialize28_$u7b$$u7b$closure$u7d$$u7d$17h601d59a04cbdb388E', symObjAddr: 0x7778, symBinAddr: 0x13FB8, symSize: 0x180 }
  - { offset: 0x6D035, size: 0x8, addend: 0x0, symName: __ZN4pyo34sync8Interned3get17h261c038ec2b77ce2E, symObjAddr: 0x281C, symBinAddr: 0x133FC, symSize: 0x48 }
  - { offset: 0x6D09E, size: 0x8, addend: 0x0, symName: __ZN4pyo35panic14PanicException18from_panic_payload17hdc1a2d2df8e6ee80E, symObjAddr: 0x28E8, symBinAddr: 0x46814, symSize: 0x144 }
  - { offset: 0x6D0FD, size: 0x8, addend: 0x0, symName: __ZN4pyo35panic14PanicException7new_err17h502542859444e771E, symObjAddr: 0x2A2C, symBinAddr: 0x13478, symSize: 0x28 }
  - { offset: 0x6D13B, size: 0x8, addend: 0x0, symName: __ZN4pyo35panic14PanicException7new_err17hc565247684200665E, symObjAddr: 0x2A54, symBinAddr: 0x134A0, symSize: 0x34 }
  - { offset: 0x6D167, size: 0x8, addend: 0x0, symName: __ZN4pyo35types6module8PyModule6import17hcf6ecc8c82e9998bE, symObjAddr: 0x2EFC, symBinAddr: 0x134F8, symSize: 0xF8 }
  - { offset: 0x6D220, size: 0x8, addend: 0x0, symName: __ZN4pyo36marker6Python15assume_attached17h59043476c3849e82E, symObjAddr: 0x42E4, symBinAddr: 0x13614, symSize: 0x4 }
  - { offset: 0x6D25A, size: 0x8, addend: 0x0, symName: __ZN4pyo36marker6Python6attach17h008a1bc4b646d588E, symObjAddr: 0x45F0, symBinAddr: 0x13618, symSize: 0xE8 }
  - { offset: 0x6D2A5, size: 0x8, addend: 0x0, symName: __ZN4pyo36marker6Python6attach17h1d13c41653e6a7b9E, symObjAddr: 0x46D8, symBinAddr: 0x13700, symSize: 0xFC }
  - { offset: 0x6D2F1, size: 0x8, addend: 0x0, symName: __ZN4pyo36marker6Python6attach17h4f2ad8e58ca64641E, symObjAddr: 0x47D4, symBinAddr: 0x137FC, symSize: 0xE8 }
  - { offset: 0x6D363, size: 0x8, addend: 0x0, symName: __ZN4pyo36marker6Python6detach17h70c8c3122694a255E, symObjAddr: 0x4A80, symBinAddr: 0x138E4, symSize: 0xB0 }
  - { offset: 0x6D3D1, size: 0x8, addend: 0x0, symName: __ZN4pyo36marker6Python6import17haef7df166513b56fE, symObjAddr: 0x4B30, symBinAddr: 0x13994, symSize: 0x24 }
  - { offset: 0x6D418, size: 0x8, addend: 0x0, symName: __ZN4pyo36marker6Python8get_type17h08f28f71d12f423dE, symObjAddr: 0x4BC8, symBinAddr: 0x139B8, symSize: 0x1C }
  - { offset: 0x6D6B1, size: 0x8, addend: 0x0, symName: '__ZN9once_cell3imp17OnceCell$LT$T$GT$10initialize17h78375a1e4cad035eE', symObjAddr: 0x6A70, symBinAddr: 0x46958, symSize: 0xAC }
  - { offset: 0x6D762, size: 0x8, addend: 0x0, symName: '__ZN9once_cell3imp17OnceCell$LT$T$GT$10initialize17hb732db697b9207c4E', symObjAddr: 0x6B1C, symBinAddr: 0x46A04, symSize: 0xA8 }
  - { offset: 0x6D81F, size: 0x8, addend: 0x0, symName: '__ZN9once_cell3imp17OnceCell$LT$T$GT$13get_unchecked17h5c8307608c744f32E', symObjAddr: 0x7C00, symBinAddr: 0x14138, symSize: 0xC0 }
  - { offset: 0x6D874, size: 0x8, addend: 0x0, symName: '__ZN9once_cell3imp17OnceCell$LT$T$GT$13get_unchecked17he861b4ff60b4cd51E', symObjAddr: 0x7E40, symBinAddr: 0x141F8, symSize: 0xC0 }
  - { offset: 0x6D8BC, size: 0x8, addend: 0x0, symName: '__ZN9once_cell3imp17OnceCell$LT$T$GT$14is_initialized17h955e923506a17acfE', symObjAddr: 0x7F60, symBinAddr: 0x142B8, symSize: 0x30 }
  - { offset: 0x6D8E7, size: 0x8, addend: 0x0, symName: '__ZN9once_cell3imp17OnceCell$LT$T$GT$14is_initialized17hd6f8931cb5aa8360E', symObjAddr: 0x7FC0, symBinAddr: 0x142E8, symSize: 0x30 }
  - { offset: 0x6F252, size: 0x8, addend: 0x0, symName: '__ZN4core3cmp5impls54_$LT$impl$u20$core..cmp..PartialEq$u20$for$u20$i32$GT$2ne17h64433872e8afba8eE', symObjAddr: 0x248, symBinAddr: 0x14318, symSize: 0x2C }
  - { offset: 0x6F2B5, size: 0x8, addend: 0x0, symName: __ZN4core9panicking13assert_failed17h388079f3c2f3db03E, symObjAddr: 0x5C0, symBinAddr: 0x46AAC, symSize: 0x54 }
  - { offset: 0x6F31E, size: 0x8, addend: 0x0, symName: __ZN4core9panicking13panic_display17hbd4f40778c8c5909E, symObjAddr: 0x6BC, symBinAddr: 0x1439C, symSize: 0x5C }
  - { offset: 0x6F579, size: 0x8, addend: 0x0, symName: __ZN4core9ub_checks23maybe_is_nonoverlapping7runtime17hee619b7cce3c1b76E, symObjAddr: 0x718, symBinAddr: 0x143F8, symSize: 0xD8 }
  - { offset: 0x6FF4C, size: 0x8, addend: 0x0, symName: __ZN8pyo3_ffi12moduleobject14PyModule_Check17h777201b8d9751b00E, symObjAddr: 0xE80, symBinAddr: 0x144F0, symSize: 0x2C }
  - { offset: 0x706A0, size: 0x8, addend: 0x0, symName: '__ZN71_$LT$pyo3..impl_..panic..PanicTrap$u20$as$u20$core..ops..drop..Drop$GT$4drop17h031eaff39a6b88d2E', symObjAddr: 0xDCC, symBinAddr: 0x144D0, symSize: 0x20 }
  - { offset: 0x70917, size: 0x8, addend: 0x0, symName: '__ZN4core4cell13Cell$LT$T$GT$3get17h031874a2adee47f0E', symObjAddr: 0x404, symBinAddr: 0x14344, symSize: 0x18 }
  - { offset: 0x7096B, size: 0x8, addend: 0x0, symName: '__ZN4core4cell13Cell$LT$T$GT$3set17h433fbf0498688d4aE', symObjAddr: 0x41C, symBinAddr: 0x1435C, symSize: 0x1C }
  - { offset: 0x709E1, size: 0x8, addend: 0x0, symName: '__ZN4core4cell13Cell$LT$T$GT$7replace17h216804ad12d7d977E', symObjAddr: 0x438, symBinAddr: 0x14378, symSize: 0x24 }
  - { offset: 0x70E46, size: 0x8, addend: 0x0, symName: '__ZN4core3ptr8non_null16NonNull$LT$T$GT$13new_unchecked18precondition_check17h34c02e1a345c1baeE', symObjAddr: 0x2548, symBinAddr: 0x14AF0, symSize: 0x58 }
  - { offset: 0x716D0, size: 0x8, addend: 0x0, symName: '__ZN90_$LT$core..ptr..non_null..NonNull$LT$T$GT$$u20$as$u20$core..convert..From$LT$$RF$T$GT$$GT$4from17h062be5d8df831dfbE', symObjAddr: 0x454C, symBinAddr: 0x14E44, symSize: 0x14 }
  - { offset: 0x71707, size: 0x8, addend: 0x0, symName: '__ZN90_$LT$core..ptr..non_null..NonNull$LT$T$GT$$u20$as$u20$core..convert..From$LT$$RF$T$GT$$GT$4from17h1922eadeee27915eE', symObjAddr: 0x4588, symBinAddr: 0x14E58, symSize: 0x14 }
  - { offset: 0x7173E, size: 0x8, addend: 0x0, symName: '__ZN90_$LT$core..ptr..non_null..NonNull$LT$T$GT$$u20$as$u20$core..convert..From$LT$$RF$T$GT$$GT$4from17h3bce857bf4a97747E', symObjAddr: 0x45DC, symBinAddr: 0x14E6C, symSize: 0x14 }
  - { offset: 0x71775, size: 0x8, addend: 0x0, symName: '__ZN90_$LT$core..ptr..non_null..NonNull$LT$T$GT$$u20$as$u20$core..convert..From$LT$$RF$T$GT$$GT$4from17h61eace4a785a2515E', symObjAddr: 0x4654, symBinAddr: 0x14E80, symSize: 0x14 }
  - { offset: 0x717AC, size: 0x8, addend: 0x0, symName: '__ZN90_$LT$core..ptr..non_null..NonNull$LT$T$GT$$u20$as$u20$core..convert..From$LT$$RF$T$GT$$GT$4from17h67c9248d02481666E', symObjAddr: 0x4668, symBinAddr: 0x14E94, symSize: 0x14 }
  - { offset: 0x717E3, size: 0x8, addend: 0x0, symName: '__ZN90_$LT$core..ptr..non_null..NonNull$LT$T$GT$$u20$as$u20$core..convert..From$LT$$RF$T$GT$$GT$4from17h76aa04d7483aa2d5E', symObjAddr: 0x467C, symBinAddr: 0x14EA8, symSize: 0x14 }
  - { offset: 0x7181A, size: 0x8, addend: 0x0, symName: '__ZN90_$LT$core..ptr..non_null..NonNull$LT$T$GT$$u20$as$u20$core..convert..From$LT$$RF$T$GT$$GT$4from17h820c83ea6df890c7E', symObjAddr: 0x46B8, symBinAddr: 0x14EBC, symSize: 0x14 }
  - { offset: 0x71851, size: 0x8, addend: 0x0, symName: '__ZN90_$LT$core..ptr..non_null..NonNull$LT$T$GT$$u20$as$u20$core..convert..From$LT$$RF$T$GT$$GT$4from17h8fcd7d9d118785feE', symObjAddr: 0x46E4, symBinAddr: 0x14ED0, symSize: 0x14 }
  - { offset: 0x71888, size: 0x8, addend: 0x0, symName: '__ZN90_$LT$core..ptr..non_null..NonNull$LT$T$GT$$u20$as$u20$core..convert..From$LT$$RF$T$GT$$GT$4from17h9c94070ba8850d70E', symObjAddr: 0x46F8, symBinAddr: 0x14EE4, symSize: 0x14 }
  - { offset: 0x718BF, size: 0x8, addend: 0x0, symName: '__ZN90_$LT$core..ptr..non_null..NonNull$LT$T$GT$$u20$as$u20$core..convert..From$LT$$RF$T$GT$$GT$4from17ha1de97ae6580621cE', symObjAddr: 0x470C, symBinAddr: 0x14EF8, symSize: 0x14 }
  - { offset: 0x718F6, size: 0x8, addend: 0x0, symName: '__ZN90_$LT$core..ptr..non_null..NonNull$LT$T$GT$$u20$as$u20$core..convert..From$LT$$RF$T$GT$$GT$4from17hbb27c7deb5916707E', symObjAddr: 0x475C, symBinAddr: 0x14F0C, symSize: 0x14 }
  - { offset: 0x7192D, size: 0x8, addend: 0x0, symName: '__ZN90_$LT$core..ptr..non_null..NonNull$LT$T$GT$$u20$as$u20$core..convert..From$LT$$RF$T$GT$$GT$4from17hfe30f3823246db7dE', symObjAddr: 0x47AC, symBinAddr: 0x14F20, symSize: 0x14 }
  - { offset: 0x719D2, size: 0x8, addend: 0x0, symName: __ZN4core3ptr19copy_nonoverlapping18precondition_check17hfe6c5f54171fff41E, symObjAddr: 0x1CC4, symBinAddr: 0x1494C, symSize: 0x168 }
  - { offset: 0x72AC9, size: 0x8, addend: 0x0, symName: '__ZN82_$LT$core..array..iter..IntoIter$LT$T$C$_$GT$$u20$as$u20$core..ops..drop..Drop$GT$4drop17hcb9e18af7250520cE', symObjAddr: 0x43A0, symBinAddr: 0x14D2C, symSize: 0x30 }
  - { offset: 0x72B20, size: 0x8, addend: 0x0, symName: '__ZN99_$LT$core..array..iter..IntoIter$LT$T$C$_$GT$$u20$as$u20$core..iter..traits..iterator..Iterator$GT$4next17haf721d4ebf34dc07E', symObjAddr: 0x48B8, symBinAddr: 0x14F6C, symSize: 0x2C }
  - { offset: 0x7326A, size: 0x8, addend: 0x0, symName: '__ZN45_$LT$$LP$$RP$$u20$as$u20$core..fmt..Debug$GT$3fmt17hd385fe0a9a660580E', symObjAddr: 0x99C, symBinAddr: 0x14680, symSize: 0x40 }
  - { offset: 0x7377F, size: 0x8, addend: 0x0, symName: '__ZN54_$LT$$BP$const$u20$T$u20$as$u20$core..fmt..Pointer$GT$3fmt28_$u7b$$u7b$closure$u7d$$u7d$17h2367ca0c89a91857E', symObjAddr: 0x3F18, symBinAddr: 0x14CF8, symSize: 0x34 }
  - { offset: 0x7397F, size: 0x8, addend: 0x0, symName: __ZN4core4iter6traits8iterator8Iterator9enumerate17h5e8c92e7ef8ec6afE, symObjAddr: 0x2DD8, symBinAddr: 0x14CE0, symSize: 0x18 }
  - { offset: 0x739B0, size: 0x8, addend: 0x0, symName: __ZN4core4iter6traits8iterator8Iterator9enumerate17h5e8c92e7ef8ec6afE, symObjAddr: 0x2DD8, symBinAddr: 0x14CE0, symSize: 0x18 }
  - { offset: 0x751D5, size: 0x8, addend: 0x0, symName: '__ZN3std4sync6poison5mutex19MutexGuard$LT$T$GT$3new28_$u7b$$u7b$closure$u7d$$u7d$17h96a9a33c2fabfb77E', symObjAddr: 0x1F4, symBinAddr: 0x14650, symSize: 0x18 }
  - { offset: 0x7521D, size: 0x8, addend: 0x0, symName: '__ZN3std4sync6poison5mutex19MutexGuard$LT$T$GT$3new28_$u7b$$u7b$closure$u7d$$u7d$17he76270b00a47ffccE', symObjAddr: 0x20C, symBinAddr: 0x14668, symSize: 0x18 }
  - { offset: 0x7526C, size: 0x8, addend: 0x0, symName: '__ZN87_$LT$std..sync..poison..mutex..MutexGuard$LT$T$GT$$u20$as$u20$core..ops..drop..Drop$GT$4drop17h1d995f41be321037E', symObjAddr: 0x43F0, symBinAddr: 0x14D5C, symSize: 0x58 }
  - { offset: 0x752EA, size: 0x8, addend: 0x0, symName: '__ZN87_$LT$std..sync..poison..mutex..MutexGuard$LT$T$GT$$u20$as$u20$core..ops..drop..Drop$GT$4drop17hc8e0450dd48ba087E', symObjAddr: 0x44A0, symBinAddr: 0x14DB4, symSize: 0x58 }
  - { offset: 0x7536E, size: 0x8, addend: 0x0, symName: '__ZN89_$LT$std..sync..poison..mutex..MutexGuard$LT$T$GT$$u20$as$u20$core..ops..deref..Deref$GT$5deref17h476bed469bb52566E', symObjAddr: 0x4514, symBinAddr: 0x14E0C, symSize: 0x1C }
  - { offset: 0x753BA, size: 0x8, addend: 0x0, symName: '__ZN89_$LT$std..sync..poison..mutex..MutexGuard$LT$T$GT$$u20$as$u20$core..ops..deref..Deref$GT$5deref17h9e6d7d98d8f12f80E', symObjAddr: 0x4530, symBinAddr: 0x14E28, symSize: 0x1C }
  - { offset: 0x7540C, size: 0x8, addend: 0x0, symName: '__ZN92_$LT$std..sync..poison..mutex..MutexGuard$LT$T$GT$$u20$as$u20$core..ops..deref..DerefMut$GT$9deref_mut17h84942e0869f9d801E', symObjAddr: 0x47DC, symBinAddr: 0x14F34, symSize: 0x1C }
  - { offset: 0x75458, size: 0x8, addend: 0x0, symName: '__ZN92_$LT$std..sync..poison..mutex..MutexGuard$LT$T$GT$$u20$as$u20$core..ops..deref..DerefMut$GT$9deref_mut17ha09ac22d27908031E', symObjAddr: 0x47F8, symBinAddr: 0x14F50, symSize: 0x1C }
  - { offset: 0x755D6, size: 0x8, addend: 0x0, symName: '__ZN3std4sync6poison5mutex14Mutex$LT$T$GT$3new17h210643c46123fd04E', symObjAddr: 0x60, symBinAddr: 0x1451C, symSize: 0x44 }
  - { offset: 0x756AD, size: 0x8, addend: 0x0, symName: '__ZN3std4sync6poison5mutex14Mutex$LT$T$GT$3new17h758dd870ba274f92E', symObjAddr: 0xA4, symBinAddr: 0x14560, symSize: 0x60 }
  - { offset: 0x757BE, size: 0x8, addend: 0x0, symName: '__ZN3std4sync6poison5mutex14Mutex$LT$T$GT$4lock17h150f0f59380d36ecE', symObjAddr: 0x104, symBinAddr: 0x145C0, symSize: 0x48 }
  - { offset: 0x75890, size: 0x8, addend: 0x0, symName: '__ZN3std4sync6poison5mutex14Mutex$LT$T$GT$4lock17hd191043986b7cf39E', symObjAddr: 0x14C, symBinAddr: 0x14608, symSize: 0x48 }
  - { offset: 0x75A3E, size: 0x8, addend: 0x0, symName: __ZN4core3fmt9Arguments23as_statically_known_str17h48c2afe645bb8f46E, symObjAddr: 0x1514, symBinAddr: 0x146C0, symSize: 0x104 }
  - { offset: 0x75C43, size: 0x8, addend: 0x0, symName: __ZN4core3fmt9Arguments3new17h596558b2caa8d881E, symObjAddr: 0x16DC, symBinAddr: 0x147C4, symSize: 0x1C }
  - { offset: 0x75CDD, size: 0x8, addend: 0x0, symName: __ZN4core3fmt9Arguments3new17h6e268a9db858f637E, symObjAddr: 0x1730, symBinAddr: 0x147E0, symSize: 0x1C }
  - { offset: 0x75D77, size: 0x8, addend: 0x0, symName: __ZN4core3fmt9Arguments3new17h8e0730b61097aa89E, symObjAddr: 0x17A0, symBinAddr: 0x147FC, symSize: 0x1C }
  - { offset: 0x75E11, size: 0x8, addend: 0x0, symName: __ZN4core3fmt9Arguments3new17hb8940f772765a370E, symObjAddr: 0x1810, symBinAddr: 0x14818, symSize: 0x1C }
  - { offset: 0x75E5D, size: 0x8, addend: 0x0, symName: __ZN4core3fmt9Arguments3new17hba3ede55acdfb0b8E, symObjAddr: 0x182C, symBinAddr: 0x14834, symSize: 0x1C }
  - { offset: 0x75F11, size: 0x8, addend: 0x0, symName: __ZN4core3fmt9Arguments3new17hed6c38eab6b631b8E, symObjAddr: 0x18F0, symBinAddr: 0x14850, symSize: 0x1C }
  - { offset: 0x75F91, size: 0x8, addend: 0x0, symName: __ZN4core3fmt9Arguments3new17hfab9503780a0b111E, symObjAddr: 0x1944, symBinAddr: 0x1486C, symSize: 0x1C }
  - { offset: 0x75FC3, size: 0x8, addend: 0x0, symName: __ZN4core3fmt9Arguments8from_str17he1f3df1b07d64e3cE, symObjAddr: 0x1960, symBinAddr: 0x14888, symSize: 0x20 }
  - { offset: 0x75FE6, size: 0x8, addend: 0x0, symName: __ZN4core3fmt9Formatter9write_fmt17hf584dae70cd670fbE, symObjAddr: 0x1980, symBinAddr: 0x148A8, symSize: 0xA4 }
  - { offset: 0x76061, size: 0x8, addend: 0x0, symName: '__ZN4core3ptr8non_null16NonNull$LT$T$GT$13new_unchecked17h4a5be4d1d72d68cfE', symObjAddr: 0x250C, symBinAddr: 0x14AB4, symSize: 0x3C }
  - { offset: 0x760A7, size: 0x8, addend: 0x0, symName: '__ZN4core3ptr8non_null16NonNull$LT$T$GT$3new17h043fc098429cabd2E', symObjAddr: 0x25A0, symBinAddr: 0x14B48, symSize: 0x58 }
  - { offset: 0x7612A, size: 0x8, addend: 0x0, symName: '__ZN4core3ptr8non_null16NonNull$LT$T$GT$4cast17h2a8b686a5a7af8c9E', symObjAddr: 0x26D0, symBinAddr: 0x14BA0, symSize: 0x14 }
  - { offset: 0x7616C, size: 0x8, addend: 0x0, symName: '__ZN4core3ptr8non_null16NonNull$LT$T$GT$4cast17h3752307ae4011a00E', symObjAddr: 0x26F8, symBinAddr: 0x14BB4, symSize: 0x14 }
  - { offset: 0x761AE, size: 0x8, addend: 0x0, symName: '__ZN4core3ptr8non_null16NonNull$LT$T$GT$4cast17h3f2557b5ee995464E', symObjAddr: 0x2720, symBinAddr: 0x14BC8, symSize: 0x14 }
  - { offset: 0x761F0, size: 0x8, addend: 0x0, symName: '__ZN4core3ptr8non_null16NonNull$LT$T$GT$4cast17h48316a36692162a3E', symObjAddr: 0x2734, symBinAddr: 0x14BDC, symSize: 0x14 }
  - { offset: 0x76232, size: 0x8, addend: 0x0, symName: '__ZN4core3ptr8non_null16NonNull$LT$T$GT$4cast17h4e3a2b2bf584ebbcE', symObjAddr: 0x2748, symBinAddr: 0x14BF0, symSize: 0x14 }
  - { offset: 0x76267, size: 0x8, addend: 0x0, symName: '__ZN4core3ptr8non_null16NonNull$LT$T$GT$4cast17h54e222efa90c3eabE', symObjAddr: 0x2784, symBinAddr: 0x14C04, symSize: 0x14 }
  - { offset: 0x762A9, size: 0x8, addend: 0x0, symName: '__ZN4core3ptr8non_null16NonNull$LT$T$GT$4cast17h5cf383a8a623d8fbE', symObjAddr: 0x27AC, symBinAddr: 0x14C18, symSize: 0x14 }
  - { offset: 0x762DE, size: 0x8, addend: 0x0, symName: '__ZN4core3ptr8non_null16NonNull$LT$T$GT$4cast17h5f088444d6f78130E', symObjAddr: 0x27C0, symBinAddr: 0x14C2C, symSize: 0x14 }
  - { offset: 0x76354, size: 0x8, addend: 0x0, symName: '__ZN4core3ptr8non_null16NonNull$LT$T$GT$4cast17h8eb7815fc4b24be3E', symObjAddr: 0x28B0, symBinAddr: 0x14C40, symSize: 0x14 }
  - { offset: 0x76396, size: 0x8, addend: 0x0, symName: '__ZN4core3ptr8non_null16NonNull$LT$T$GT$4cast17h925813f803655f17E', symObjAddr: 0x28D8, symBinAddr: 0x14C54, symSize: 0x14 }
  - { offset: 0x763CB, size: 0x8, addend: 0x0, symName: '__ZN4core3ptr8non_null16NonNull$LT$T$GT$4cast17h9407dd3e59e3d1f4E', symObjAddr: 0x28EC, symBinAddr: 0x14C68, symSize: 0x14 }
  - { offset: 0x7641A, size: 0x8, addend: 0x0, symName: '__ZN4core3ptr8non_null16NonNull$LT$T$GT$4cast17habca3982edce2bb1E', symObjAddr: 0x2950, symBinAddr: 0x14C7C, symSize: 0x14 }
  - { offset: 0x76476, size: 0x8, addend: 0x0, symName: '__ZN4core3ptr8non_null16NonNull$LT$T$GT$4cast17hb881603152b1f7c0E', symObjAddr: 0x29B4, symBinAddr: 0x14C90, symSize: 0x14 }
  - { offset: 0x764AB, size: 0x8, addend: 0x0, symName: '__ZN4core3ptr8non_null16NonNull$LT$T$GT$4cast17hc1c8dd86de6df85fE', symObjAddr: 0x29C8, symBinAddr: 0x14CA4, symSize: 0x14 }
  - { offset: 0x764FA, size: 0x8, addend: 0x0, symName: '__ZN4core3ptr8non_null16NonNull$LT$T$GT$4cast17hdb32207f1196e9eeE', symObjAddr: 0x2A04, symBinAddr: 0x14CB8, symSize: 0x14 }
  - { offset: 0x7653C, size: 0x8, addend: 0x0, symName: '__ZN4core3ptr8non_null16NonNull$LT$T$GT$4cast17hf2fc6cf7aecf3fc3E', symObjAddr: 0x2A2C, symBinAddr: 0x14CCC, symSize: 0x14 }
  - { offset: 0x77FAD, size: 0x8, addend: 0x0, symName: '__ZN145_$LT$core..option..Option$LT$T$GT$$u20$as$u20$core..ops..try_trait..FromResidual$LT$core..option..Option$LT$core..convert..Infallible$GT$$GT$$GT$13from_residual17h49d0b2a67fb82739E', symObjAddr: 0x4E0, symBinAddr: 0x14F98, symSize: 0x10 }
  - { offset: 0x79397, size: 0x8, addend: 0x0, symName: '__ZN66_$LT$core..option..Option$LT$T$GT$$u20$as$u20$core..fmt..Debug$GT$3fmt17hd0b7c7e1b8664361E', symObjAddr: 0x4760, symBinAddr: 0x164B4, symSize: 0xA0 }
  - { offset: 0x79401, size: 0x8, addend: 0x0, symName: '__ZN75_$LT$core..option..Option$LT$T$GT$$u20$as$u20$core..ops..try_trait..Try$GT$6branch17h9f9b3dd909f0674cE', symObjAddr: 0x50E0, symBinAddr: 0x1678C, symSize: 0x60 }
  - { offset: 0x79EA3, size: 0x8, addend: 0x0, symName: '__ZN4core3fmt8builders11DebugStruct10field_with28_$u7b$$u7b$closure$u7d$$u7d$17h1ee3468d4b26f282E', symObjAddr: 0xD8C, symBinAddr: 0x15334, symSize: 0x354 }
  - { offset: 0x7ADB5, size: 0x8, addend: 0x0, symName: __ZN4core3mem4drop17h46e3a90ef5b7ec52E, symObjAddr: 0x161C, symBinAddr: 0x15688, symSize: 0x2C }
  - { offset: 0x7ADE8, size: 0x8, addend: 0x0, symName: __ZN4core3mem4drop17hd127d69577fd3a1eE, symObjAddr: 0x1648, symBinAddr: 0x156B4, symSize: 0x2C }
  - { offset: 0x7AE4E, size: 0x8, addend: 0x0, symName: __ZN4core3mem4take17h4da29f6ce06f7b1cE, symObjAddr: 0x16C8, symBinAddr: 0x156E0, symSize: 0x54 }
  - { offset: 0x7AEAB, size: 0x8, addend: 0x0, symName: __ZN4core3mem6forget17hecd436cd261dbff0E, symObjAddr: 0x1798, symBinAddr: 0x15734, symSize: 0x14 }
  - { offset: 0x7C453, size: 0x8, addend: 0x0, symName: __ZN3std4sync6poison10map_result17h1ba81a13c6e9a671E, symObjAddr: 0x628, symBinAddr: 0x14FA8, symSize: 0xC4 }
  - { offset: 0x7C4E7, size: 0x8, addend: 0x0, symName: __ZN3std4sync6poison10map_result17ha51b8d556fca7059E, symObjAddr: 0x7B0, symBinAddr: 0x1506C, symSize: 0xC4 }
  - { offset: 0x7C5B3, size: 0x8, addend: 0x0, symName: '__ZN76_$LT$std..sync..poison..PoisonError$LT$T$GT$$u20$as$u20$core..fmt..Debug$GT$3fmt17h061dca13ebfbedcaE', symObjAddr: 0x51CC, symBinAddr: 0x167EC, symSize: 0x50 }
  - { offset: 0x7C5F6, size: 0x8, addend: 0x0, symName: '__ZN76_$LT$std..sync..poison..PoisonError$LT$T$GT$$u20$as$u20$core..fmt..Debug$GT$3fmt17h533b6540ea1d8803E', symObjAddr: 0x521C, symBinAddr: 0x1683C, symSize: 0x50 }
  - { offset: 0x7C9FF, size: 0x8, addend: 0x0, symName: '__ZN72_$LT$alloc..boxed..Box$LT$T$C$A$GT$$u20$as$u20$core..ops..drop..Drop$GT$4drop17h6940a35aa61b2ab4E', symObjAddr: 0x4C90, symBinAddr: 0x16554, symSize: 0xB0 }
  - { offset: 0x7CB38, size: 0x8, addend: 0x0, symName: '__ZN72_$LT$alloc..boxed..Box$LT$T$C$A$GT$$u20$as$u20$core..ops..drop..Drop$GT$4drop17h8ea932a328b97e84E', symObjAddr: 0x4D40, symBinAddr: 0x16604, symSize: 0xC4 }
  - { offset: 0x7CC71, size: 0x8, addend: 0x0, symName: '__ZN72_$LT$alloc..boxed..Box$LT$T$C$A$GT$$u20$as$u20$core..ops..drop..Drop$GT$4drop17hdf88a6eded0fdba5E', symObjAddr: 0x4E04, symBinAddr: 0x166C8, symSize: 0xC4 }
  - { offset: 0x7CDFA, size: 0x8, addend: 0x0, symName: '__ZN90_$LT$alloc..boxed..Box$LT$F$C$A$GT$$u20$as$u20$core..ops..function..FnOnce$LT$Args$GT$$GT$9call_once17hb987c1228a376a10E', symObjAddr: 0x5E30, symBinAddr: 0x1688C, symSize: 0x138 }
  - { offset: 0x7D19A, size: 0x8, addend: 0x0, symName: __ZN3std4sync6poison4Flag4done17h8f9fcdf85ea1e105E, symObjAddr: 0x874, symBinAddr: 0x15130, symSize: 0x8C }
  - { offset: 0x7D288, size: 0x8, addend: 0x0, symName: __ZN3std4sync6poison4Flag5guard17he3a12dcc87caac35E, symObjAddr: 0x900, symBinAddr: 0x151BC, symSize: 0xCC }
  - { offset: 0x7D3CD, size: 0x8, addend: 0x0, symName: __ZN4core3fmt8builders11DebugStruct10field_with17he65e27f3d94d0ac1E, symObjAddr: 0xCE0, symBinAddr: 0x15288, symSize: 0xAC }
  - { offset: 0x7D595, size: 0x8, addend: 0x0, symName: '__ZN4core6option15Option$LT$T$GT$11map_or_else17hd756a8a8b67aceedE', symObjAddr: 0x21E0, symBinAddr: 0x15748, symSize: 0xC0 }
  - { offset: 0x7D64A, size: 0x8, addend: 0x0, symName: '__ZN4core6option15Option$LT$T$GT$11map_or_else17hdb5a38dc3abfcfe2E', symObjAddr: 0x22A0, symBinAddr: 0x15808, symSize: 0xC0 }
  - { offset: 0x7D6F8, size: 0x8, addend: 0x0, symName: '__ZN4core6option15Option$LT$T$GT$14unwrap_or_else17h0118c4e5b0621b4eE', symObjAddr: 0x2430, symBinAddr: 0x158C8, symSize: 0x58 }
  - { offset: 0x7D756, size: 0x8, addend: 0x0, symName: '__ZN4core6option15Option$LT$T$GT$14unwrap_or_else17h048f20ff622951b2E', symObjAddr: 0x2488, symBinAddr: 0x15920, symSize: 0x6C }
  - { offset: 0x7D79B, size: 0x8, addend: 0x0, symName: '__ZN4core6option15Option$LT$T$GT$14unwrap_or_else17h836cf2af4a95c558E', symObjAddr: 0x254C, symBinAddr: 0x1598C, symSize: 0x68 }
  - { offset: 0x7D7F2, size: 0x8, addend: 0x0, symName: '__ZN4core6option15Option$LT$T$GT$14unwrap_or_else17hdaa70b1f6e4c3ec4E', symObjAddr: 0x25B4, symBinAddr: 0x159F4, symSize: 0x54 }
  - { offset: 0x7D837, size: 0x8, addend: 0x0, symName: '__ZN4core6option15Option$LT$T$GT$16unwrap_unchecked17h0da1931731a6531fE', symObjAddr: 0x2608, symBinAddr: 0x15A48, symSize: 0x4C }
  - { offset: 0x7D8AF, size: 0x8, addend: 0x0, symName: '__ZN4core6option15Option$LT$T$GT$16unwrap_unchecked17h64ebd0298518d613E', symObjAddr: 0x27A4, symBinAddr: 0x15A94, symSize: 0x4C }
  - { offset: 0x7D8F0, size: 0x8, addend: 0x0, symName: '__ZN4core6option15Option$LT$T$GT$16unwrap_unchecked17hbd8d4845c370ee54E', symObjAddr: 0x28AC, symBinAddr: 0x15AE0, symSize: 0x5C }
  - { offset: 0x7D932, size: 0x8, addend: 0x0, symName: '__ZN4core6option15Option$LT$T$GT$16unwrap_unchecked17he4a57459b38f6bd6E', symObjAddr: 0x2968, symBinAddr: 0x15B3C, symSize: 0x60 }
  - { offset: 0x7D9AA, size: 0x8, addend: 0x0, symName: '__ZN4core6option15Option$LT$T$GT$3map17h0e78ed8a74732820E', symObjAddr: 0x2B88, symBinAddr: 0x15B9C, symSize: 0x50 }
  - { offset: 0x7DA15, size: 0x8, addend: 0x0, symName: '__ZN4core6option15Option$LT$T$GT$3map17h105402c408cf684dE', symObjAddr: 0x2BD8, symBinAddr: 0x15BEC, symSize: 0x50 }
  - { offset: 0x7DA8D, size: 0x8, addend: 0x0, symName: '__ZN4core6option15Option$LT$T$GT$3map17h2976a3da659435d8E', symObjAddr: 0x2C28, symBinAddr: 0x15C3C, symSize: 0x5C }
  - { offset: 0x7DAF8, size: 0x8, addend: 0x0, symName: '__ZN4core6option15Option$LT$T$GT$3map17h51c22ff0744aee6fE', symObjAddr: 0x2C84, symBinAddr: 0x15C98, symSize: 0x80 }
  - { offset: 0x7DB93, size: 0x8, addend: 0x0, symName: '__ZN4core6option15Option$LT$T$GT$3map17h67e5fb99a3f0e368E', symObjAddr: 0x2DFC, symBinAddr: 0x15D18, symSize: 0x50 }
  - { offset: 0x7DBFE, size: 0x8, addend: 0x0, symName: '__ZN4core6option15Option$LT$T$GT$3map17h72e5da4daf343956E', symObjAddr: 0x2E4C, symBinAddr: 0x15D68, symSize: 0x50 }
  - { offset: 0x7DC81, size: 0x8, addend: 0x0, symName: '__ZN4core6option15Option$LT$T$GT$3map17ha7f4a6bd932c85a8E', symObjAddr: 0x2F94, symBinAddr: 0x15DB8, symSize: 0x5C }
  - { offset: 0x7DCEC, size: 0x8, addend: 0x0, symName: '__ZN4core6option15Option$LT$T$GT$3map17hd3f67ed3ef12bcd6E', symObjAddr: 0x3040, symBinAddr: 0x15E14, symSize: 0x50 }
  - { offset: 0x7DD57, size: 0x8, addend: 0x0, symName: '__ZN4core6option15Option$LT$T$GT$3map17hf021869c6492f9c1E', symObjAddr: 0x30EC, symBinAddr: 0x15E64, symSize: 0x78 }
  - { offset: 0x7DDDC, size: 0x8, addend: 0x0, symName: '__ZN4core6option15Option$LT$T$GT$4take17h2487a58db6d46e48E', symObjAddr: 0x31FC, symBinAddr: 0x15EDC, symSize: 0x38 }
  - { offset: 0x7DE33, size: 0x8, addend: 0x0, symName: '__ZN4core6option15Option$LT$T$GT$4take17h5e29fc887aab31abE', symObjAddr: 0x3234, symBinAddr: 0x15F14, symSize: 0x5C }
  - { offset: 0x7DE8A, size: 0x8, addend: 0x0, symName: '__ZN4core6option15Option$LT$T$GT$4take17hc329d6a8d5fec643E', symObjAddr: 0x3404, symBinAddr: 0x15F70, symSize: 0x3C }
  - { offset: 0x7DEEE, size: 0x8, addend: 0x0, symName: '__ZN4core6option15Option$LT$T$GT$6as_ref17h3353573e530aeda7E', symObjAddr: 0x35A4, symBinAddr: 0x15FAC, symSize: 0x4C }
  - { offset: 0x7DF79, size: 0x8, addend: 0x0, symName: '__ZN4core6option15Option$LT$T$GT$6as_ref17h790c4e22699ac8e4E', symObjAddr: 0x3688, symBinAddr: 0x15FF8, symSize: 0x4C }
  - { offset: 0x7DFD0, size: 0x8, addend: 0x0, symName: '__ZN4core6option15Option$LT$T$GT$6as_ref17h890a33123056ca6eE', symObjAddr: 0x36D4, symBinAddr: 0x16044, symSize: 0x4C }
  - { offset: 0x7E027, size: 0x8, addend: 0x0, symName: '__ZN4core6option15Option$LT$T$GT$6as_ref17h8ab80cb26b220075E', symObjAddr: 0x3720, symBinAddr: 0x16090, symSize: 0x4C }
  - { offset: 0x7E07E, size: 0x8, addend: 0x0, symName: '__ZN4core6option15Option$LT$T$GT$6as_ref17h9f6fe450660feddfE', symObjAddr: 0x376C, symBinAddr: 0x160DC, symSize: 0x4C }
  - { offset: 0x7E109, size: 0x8, addend: 0x0, symName: '__ZN4core6option15Option$LT$T$GT$6as_ref17hb842ddb40825989cE', symObjAddr: 0x37B8, symBinAddr: 0x16128, symSize: 0x4C }
  - { offset: 0x7E153, size: 0x8, addend: 0x0, symName: '__ZN4core6option15Option$LT$T$GT$6expect17h1518d722f5332557E', symObjAddr: 0x3804, symBinAddr: 0x16174, symSize: 0x68 }
  - { offset: 0x7E18F, size: 0x8, addend: 0x0, symName: '__ZN4core6option15Option$LT$T$GT$6expect17hd78772da329b1c32E', symObjAddr: 0x38C8, symBinAddr: 0x161DC, symSize: 0x5C }
  - { offset: 0x7E1CA, size: 0x8, addend: 0x0, symName: '__ZN4core6option15Option$LT$T$GT$6expect17he28a4f602bccfc5bE', symObjAddr: 0x3924, symBinAddr: 0x16238, symSize: 0x5C }
  - { offset: 0x7E235, size: 0x8, addend: 0x0, symName: '__ZN4core6option15Option$LT$T$GT$6map_or17h2a20908d0944022aE', symObjAddr: 0x3A28, symBinAddr: 0x16294, symSize: 0x9C }
  - { offset: 0x7E2D7, size: 0x8, addend: 0x0, symName: '__ZN4core6option15Option$LT$T$GT$6map_or17hbd837a6d7bb2aab7E', symObjAddr: 0x3BFC, symBinAddr: 0x16330, symSize: 0x9C }
  - { offset: 0x7E361, size: 0x8, addend: 0x0, symName: '__ZN4core6option15Option$LT$T$GT$6map_or17hc5397ccb9b1fb5f0E', symObjAddr: 0x3C98, symBinAddr: 0x163CC, symSize: 0x9C }
  - { offset: 0x7E3E0, size: 0x8, addend: 0x0, symName: '__ZN4core6option15Option$LT$T$GT$7is_some17h48e235f64364b454E', symObjAddr: 0x3DF8, symBinAddr: 0x16468, symSize: 0x28 }
  - { offset: 0x7E433, size: 0x8, addend: 0x0, symName: '__ZN4core6option15Option$LT$T$GT$7replace17h6b2c1b08b2a5c2aeE', symObjAddr: 0x3E90, symBinAddr: 0x16490, symSize: 0x24 }
  - { offset: 0x7E8CD, size: 0x8, addend: 0x0, symName: __ZN3std6thread6thread6Thread6unpark17hfcc360b13768f323E, symObjAddr: 0x0, symBinAddr: 0x169C4, symSize: 0x38 }
  - { offset: 0x7E9DD, size: 0x8, addend: 0x0, symName: __ZN4core4sync6atomic11atomic_load17hbec2196c25769b11E, symObjAddr: 0x324, symBinAddr: 0x16C44, symSize: 0xF8 }
  - { offset: 0x7EA23, size: 0x8, addend: 0x0, symName: __ZN4core4sync6atomic11atomic_load17hda01155ef4e20b09E, symObjAddr: 0x41C, symBinAddr: 0x16D3C, symSize: 0xF8 }
  - { offset: 0x7EA69, size: 0x8, addend: 0x0, symName: __ZN4core4sync6atomic12atomic_store17hd94df09a980a14e4E, symObjAddr: 0x514, symBinAddr: 0x16E34, symSize: 0xFC }
  - { offset: 0x7EB97, size: 0x8, addend: 0x0, symName: __ZN4core4sync6atomic23atomic_compare_exchange17h7d25c00498a5fc99E, symObjAddr: 0x744, symBinAddr: 0x17064, symSize: 0x4B4 }
  - { offset: 0x7EC32, size: 0x8, addend: 0x0, symName: __ZN4core4sync6atomic5fence17h675429f80955b2d4E, symObjAddr: 0xBF8, symBinAddr: 0x17518, symSize: 0xB0 }
  - { offset: 0x7ED32, size: 0x8, addend: 0x0, symName: '__ZN4core3ptr100drop_in_place$LT$core..cell..Cell$LT$core..option..Option$LT$std..thread..thread..Thread$GT$$GT$$GT$17h031752d2db9ce730E', symObjAddr: 0xF8, symBinAddr: 0x16A30, symSize: 0x24 }
  - { offset: 0x7ED61, size: 0x8, addend: 0x0, symName: '__ZN4core3ptr106drop_in_place$LT$core..cell..UnsafeCell$LT$core..option..Option$LT$std..thread..thread..Thread$GT$$GT$$GT$17h83c2f7d48baed8c1E', symObjAddr: 0x11C, symBinAddr: 0x16A54, symSize: 0x24 }
  - { offset: 0x7ED90, size: 0x8, addend: 0x0, symName: '__ZN4core3ptr114drop_in_place$LT$core..pin..Pin$LT$alloc..sync..Arc$LT$std..thread..thread..Inner$C$std..alloc..System$GT$$GT$$GT$17hda339c99e3e38e7eE', symObjAddr: 0x140, symBinAddr: 0x16A78, symSize: 0x24 }
  - { offset: 0x7EDBF, size: 0x8, addend: 0x0, symName: '__ZN4core3ptr42drop_in_place$LT$once_cell..imp..Guard$GT$17h54928c04524e4c7aE', symObjAddr: 0x164, symBinAddr: 0x16A9C, symSize: 0x24 }
  - { offset: 0x7EDEE, size: 0x8, addend: 0x0, symName: '__ZN4core3ptr43drop_in_place$LT$once_cell..imp..Waiter$GT$17h3a1aa0736a385013E', symObjAddr: 0x188, symBinAddr: 0x16AC0, symSize: 0x24 }
  - { offset: 0x7EE1D, size: 0x8, addend: 0x0, symName: '__ZN4core3ptr48drop_in_place$LT$std..thread..thread..Thread$GT$17hc70b70a5b74bcb5eE', symObjAddr: 0x1AC, symBinAddr: 0x16AE4, symSize: 0x24 }
  - { offset: 0x7EE4C, size: 0x8, addend: 0x0, symName: '__ZN4core3ptr76drop_in_place$LT$core..option..Option$LT$std..thread..thread..Thread$GT$$GT$17hb8ffb7fd35eb00aeE', symObjAddr: 0x1D0, symBinAddr: 0x16B08, symSize: 0x44 }
  - { offset: 0x7EEC2, size: 0x8, addend: 0x0, symName: '__ZN4core3ptr7mut_ptr31_$LT$impl$u20$$BP$mut$u20$T$GT$7is_null17he5206297355e8cb5E', symObjAddr: 0x214, symBinAddr: 0x16B4C, symSize: 0x18 }
  - { offset: 0x7EF56, size: 0x8, addend: 0x0, symName: '__ZN4core3ptr92drop_in_place$LT$alloc..sync..Arc$LT$std..thread..thread..Inner$C$std..alloc..System$GT$$GT$17h4f269be5e57ff068E', symObjAddr: 0x22C, symBinAddr: 0x16B64, symSize: 0x24 }
  - { offset: 0x7F076, size: 0x8, addend: 0x0, symName: '__ZN72_$LT$core..option..Option$LT$T$GT$$u20$as$u20$core..default..Default$GT$7default17hc9923eead288db1cE', symObjAddr: 0xF88, symBinAddr: 0x178A8, symSize: 0x8 }
  - { offset: 0x7F408, size: 0x8, addend: 0x0, symName: '__ZN4core3ops8function5impls79_$LT$impl$u20$core..ops..function..FnMut$LT$A$GT$$u20$for$u20$$RF$mut$u20$F$GT$8call_mut17h5f0a59dbc0e4387aE', symObjAddr: 0xC4, symBinAddr: 0x169FC, symSize: 0x34 }
  - { offset: 0x7F5EC, size: 0x8, addend: 0x0, symName: '__ZN71_$LT$alloc..sync..Arc$LT$T$C$A$GT$$u20$as$u20$core..ops..drop..Drop$GT$4drop17hac3db3d592e5b76aE', symObjAddr: 0xF0C, symBinAddr: 0x1782C, symSize: 0x7C }
  - { offset: 0x7F93A, size: 0x8, addend: 0x0, symName: __ZN3std6thread6thread6Thread6unpark17hfcc360b13768f323E, symObjAddr: 0x0, symBinAddr: 0x169C4, symSize: 0x38 }
  - { offset: 0x7FAA1, size: 0x8, addend: 0x0, symName: '__ZN63_$LT$once_cell..imp..Guard$u20$as$u20$core..ops..drop..Drop$GT$4drop17hbdce332dc698d229E', symObjAddr: 0xCA8, symBinAddr: 0x175C8, symSize: 0x250 }
  - { offset: 0x7FBA1, size: 0x8, addend: 0x0, symName: '__ZN63_$LT$once_cell..imp..Guard$u20$as$u20$core..ops..drop..Drop$GT$4drop28_$u7b$$u7b$closure$u7d$$u7d$17h5a390d94defc1e77E', symObjAddr: 0xEF8, symBinAddr: 0x17818, symSize: 0x14 }
  - { offset: 0x7FBE0, size: 0x8, addend: 0x0, symName: __ZN9once_cell3imp18initialize_or_wait17hb0bdddc22ea8279bE, symObjAddr: 0xF90, symBinAddr: 0x178B0, symSize: 0x18C }
  - { offset: 0x7FCA2, size: 0x8, addend: 0x0, symName: '__ZN9once_cell3imp18initialize_or_wait28_$u7b$$u7b$closure$u7d$$u7d$17hf7f13f29c5befdd1E', symObjAddr: 0x111C, symBinAddr: 0x17A3C, symSize: 0x18 }
  - { offset: 0x7FCE0, size: 0x8, addend: 0x0, symName: __ZN9once_cell3imp4wait17hc880c5f386465160E, symObjAddr: 0x1134, symBinAddr: 0x17A54, symSize: 0x1EC }
  - { offset: 0x7FD87, size: 0x8, addend: 0x0, symName: '__ZN9once_cell3imp4wait28_$u7b$$u7b$closure$u7d$$u7d$17h41b2b57983fdc385E', symObjAddr: 0x1320, symBinAddr: 0x17C40, symSize: 0x14 }
  - { offset: 0x7FDBD, size: 0x8, addend: 0x0, symName: '__ZN9once_cell3imp4wait28_$u7b$$u7b$closure$u7d$$u7d$17h498b81f1a2a395c7E', symObjAddr: 0x1334, symBinAddr: 0x17C54, symSize: 0x20 }
  - { offset: 0x7FE19, size: 0x8, addend: 0x0, symName: __ZN9once_cell3imp6strict4addr17h4a38f09245f5b384E, symObjAddr: 0x1354, symBinAddr: 0x17C74, symSize: 0x10 }
  - { offset: 0x7FE4E, size: 0x8, addend: 0x0, symName: __ZN9once_cell3imp6strict8map_addr17h25405bf09235b4f2E, symObjAddr: 0x1364, symBinAddr: 0x17C84, symSize: 0x88 }
  - { offset: 0x7FE9D, size: 0x8, addend: 0x0, symName: __ZN9once_cell3imp6strict8map_addr17h5766b7574be19323E, symObjAddr: 0x13EC, symBinAddr: 0x17D0C, symSize: 0x88 }
  - { offset: 0x7FEEC, size: 0x8, addend: 0x0, symName: __ZN9once_cell3imp6strict8map_addr17hbfbc64aacb43e5dcE, symObjAddr: 0x1474, symBinAddr: 0x17D94, symSize: 0x88 }
  - { offset: 0x7FF3B, size: 0x8, addend: 0x0, symName: __ZN9once_cell3imp6strict8map_addr17hf656c24e67b94b1eE, symObjAddr: 0x14FC, symBinAddr: 0x17E1C, symSize: 0x94 }
  - { offset: 0x7FF8A, size: 0x8, addend: 0x0, symName: __ZN9once_cell3imp6strict9with_addr17hd90d1cf5d3d8dc50E, symObjAddr: 0x1590, symBinAddr: 0x17EB0, symSize: 0x64 }
  - { offset: 0x800A7, size: 0x8, addend: 0x0, symName: '__ZN4core4cell13Cell$LT$T$GT$3new17h6d48d3dd6f592261E', symObjAddr: 0x268, symBinAddr: 0x16B88, symSize: 0x14 }
  - { offset: 0x80108, size: 0x8, addend: 0x0, symName: '__ZN4core4cell13Cell$LT$T$GT$4take17h7eb846c340f6580cE', symObjAddr: 0x27C, symBinAddr: 0x16B9C, symSize: 0x3C }
  - { offset: 0x8016F, size: 0x8, addend: 0x0, symName: __ZN4core4sync6atomic10AtomicBool3new17hc665ee2c61052d46E, symObjAddr: 0x2B8, symBinAddr: 0x16BD8, symSize: 0x18 }
  - { offset: 0x8019F, size: 0x8, addend: 0x0, symName: __ZN4core4sync6atomic10AtomicBool4load17ha25f150e5cd72589E, symObjAddr: 0x2D0, symBinAddr: 0x16BF0, symSize: 0x2C }
  - { offset: 0x801D1, size: 0x8, addend: 0x0, symName: __ZN4core4sync6atomic10AtomicBool5store17hcebaa85e29309867E, symObjAddr: 0x2FC, symBinAddr: 0x16C1C, symSize: 0x28 }
  - { offset: 0x8021F, size: 0x8, addend: 0x0, symName: '__ZN4core4sync6atomic18AtomicPtr$LT$T$GT$16compare_exchange17h77a7bb0f85a32a96E', symObjAddr: 0x610, symBinAddr: 0x16F30, symSize: 0x38 }
  - { offset: 0x80287, size: 0x8, addend: 0x0, symName: '__ZN4core4sync6atomic18AtomicPtr$LT$T$GT$4load17ha6492c4666b8e1efE', symObjAddr: 0x648, symBinAddr: 0x16F68, symSize: 0x24 }
  - { offset: 0x802F8, size: 0x8, addend: 0x0, symName: '__ZN4core4sync6atomic18AtomicPtr$LT$T$GT$4swap17h9736083593f9d6b7E', symObjAddr: 0x66C, symBinAddr: 0x16F8C, symSize: 0xD8 }
  - { offset: 0x80640, size: 0x8, addend: 0x0, symName: __ZN4core4sync6atomic11atomic_load17h84c68daaed1fd2e1E, symObjAddr: 0x800, symBinAddr: 0x17FEC, symSize: 0xF8 }
  - { offset: 0x806ED, size: 0x8, addend: 0x0, symName: '__ZN4core3ptr50drop_in_place$LT$pyo3_ffi..pystate..HangThread$GT$17h9b26440baeb08087E', symObjAddr: 0x724, symBinAddr: 0x17F40, symSize: 0x24 }
  - { offset: 0x80726, size: 0x8, addend: 0x0, symName: '__ZN4core3ptr9const_ptr33_$LT$impl$u20$$BP$const$u20$T$GT$13is_aligned_to17h5659bfe822ca814cE', symObjAddr: 0x778, symBinAddr: 0x17F64, symSize: 0x88 }
  - { offset: 0x807C8, size: 0x8, addend: 0x0, symName: __ZN4core3mem6forget17h843e40fa31c2deb4E, symObjAddr: 0x600, symBinAddr: 0x17F34, symSize: 0xC }
  - { offset: 0x80B2F, size: 0x8, addend: 0x0, symName: '__ZN71_$LT$pyo3_ffi..pystate..HangThread$u20$as$u20$core..ops..drop..Drop$GT$4drop17hdb3eb80073cf5c39E', symObjAddr: 0xA30, symBinAddr: 0x180E4, symSize: 0x1C }
  - { offset: 0x80B58, size: 0x8, addend: 0x0, symName: __ZN8pyo3_ffi7pystate17PyGILState_Ensure17hed938ebbdbb96c71E, symObjAddr: 0xD20, symBinAddr: 0x18174, symSize: 0x7C }
  - { offset: 0x80BB1, size: 0x8, addend: 0x0, symName: __ZN8pyo3_ffi32_cstr_from_utf8_with_nul_checked17h05f90741633ea325E, symObjAddr: 0xCAC, symBinAddr: 0x18100, symSize: 0x74 }
  - { offset: 0x80D5A, size: 0x8, addend: 0x0, symName: __ZN4core3fmt9Arguments8from_str17hbbfe8c62502ebd62E, symObjAddr: 0x5E0, symBinAddr: 0x17F14, symSize: 0x20 }
  - { offset: 0x80DC2, size: 0x8, addend: 0x0, symName: __RNvCs1Y7DaGC1cwg_7___rustc10rust_panic, symObjAddr: 0x0, symBinAddr: 0x46B00, symSize: 0x48 }
  - { offset: 0x80DD9, size: 0x8, addend: 0x0, symName: __RNvCs1Y7DaGC1cwg_7___rustc10rust_panic, symObjAddr: 0x0, symBinAddr: 0x46B00, symSize: 0x48 }
  - { offset: 0x80DF3, size: 0x8, addend: 0x0, symName: __RNvCs1Y7DaGC1cwg_7___rustc17___rust_drop_panic, symObjAddr: 0x174, symBinAddr: 0x18310, symSize: 0x118 }
  - { offset: 0x8116C, size: 0x8, addend: 0x0, symName: __RNvCs1Y7DaGC1cwg_7___rustc17rust_begin_unwind, symObjAddr: 0x28C, symBinAddr: 0x18428, symSize: 0x20 }
  - { offset: 0x8119C, size: 0x8, addend: 0x0, symName: __RNvCs1Y7DaGC1cwg_7___rustc24___rust_foreign_exception, symObjAddr: 0x33C, symBinAddr: 0x184D8, symSize: 0x118 }
  - { offset: 0x8157F, size: 0x8, addend: 0x0, symName: __ZN3std9panicking11panic_count17is_zero_slow_path17hbe4f1645e48c7385E, symObjAddr: 0x223CC, symBinAddr: 0x473C8, symSize: 0x2C }
  - { offset: 0x8162B, size: 0x8, addend: 0x0, symName: __ZN3std9panicking11panic_count8increase17hdbd2d359b087e7d1E, symObjAddr: 0x2245C, symBinAddr: 0x22050, symSize: 0x64 }
  - { offset: 0x81642, size: 0x8, addend: 0x0, symName: __ZN3std9panicking11panic_count8increase17hdbd2d359b087e7d1E, symObjAddr: 0x2245C, symBinAddr: 0x22050, symSize: 0x64 }
  - { offset: 0x81657, size: 0x8, addend: 0x0, symName: __ZN3std9panicking11panic_count8increase17hdbd2d359b087e7d1E, symObjAddr: 0x2245C, symBinAddr: 0x22050, symSize: 0x64 }
  - { offset: 0x8176E, size: 0x8, addend: 0x0, symName: __ZN3std9panicking12catch_unwind7cleanup17h3fef8c9a7d337a30E, symObjAddr: 0x224E4, symBinAddr: 0x473F4, symSize: 0x40 }
  - { offset: 0x81895, size: 0x8, addend: 0x0, symName: '__ZN3std9panicking12default_hook28_$u7b$$u7b$closure$u7d$$u7d$17hb13fd44d9edf00c4E', symObjAddr: 0x22660, symBinAddr: 0x221F0, symSize: 0x134 }
  - { offset: 0x819C5, size: 0x8, addend: 0x0, symName: __ZN3std9panicking12default_hook17h3b3b0d3cdb46d087E, symObjAddr: 0x22524, symBinAddr: 0x220B4, symSize: 0x13C }
  - { offset: 0x81B4F, size: 0x8, addend: 0x0, symName: '__ZN3std9panicking13panic_handler28_$u7b$$u7b$closure$u7d$$u7d$17hd0ef6f87b4fd1427E', symObjAddr: 0x22794, symBinAddr: 0x22324, symSize: 0x9C }
  - { offset: 0x81CC7, size: 0x8, addend: 0x0, symName: '__ZN86_$LT$std..panicking..panic_handler..StaticStrPayload$u20$as$u20$core..fmt..Display$GT$3fmt17ha7b4dbdc309b292aE', symObjAddr: 0x4AC00, symBinAddr: 0x357D0, symSize: 0x10 }
  - { offset: 0x81CE8, size: 0x8, addend: 0x0, symName: '__ZN89_$LT$std..panicking..panic_handler..FormatStringPayload$u20$as$u20$core..fmt..Display$GT$3fmt17h0573058d1c89f351E', symObjAddr: 0x4AF9C, symBinAddr: 0x35808, symSize: 0x34 }
  - { offset: 0x81DE3, size: 0x8, addend: 0x0, symName: '__ZN93_$LT$std..panicking..panic_handler..StaticStrPayload$u20$as$u20$core..panic..PanicPayload$GT$3get17h62868b121f1a99c0E', symObjAddr: 0x4B5B8, symBinAddr: 0x358A4, symSize: 0xC }
  - { offset: 0x81DFE, size: 0x8, addend: 0x0, symName: '__ZN93_$LT$std..panicking..panic_handler..StaticStrPayload$u20$as$u20$core..panic..PanicPayload$GT$6as_str17hb0b1f0179ac70d2bE', symObjAddr: 0x4B5C4, symBinAddr: 0x358B0, symSize: 0xC }
  - { offset: 0x81E18, size: 0x8, addend: 0x0, symName: '__ZN93_$LT$std..panicking..panic_handler..StaticStrPayload$u20$as$u20$core..panic..PanicPayload$GT$8take_box17he6f6fdc077471527E', symObjAddr: 0x4B5D0, symBinAddr: 0x358BC, symSize: 0x48 }
  - { offset: 0x81ED7, size: 0x8, addend: 0x0, symName: '__ZN96_$LT$std..panicking..panic_handler..FormatStringPayload$u20$as$u20$core..panic..PanicPayload$GT$3get17h16106ceab7e9e590E', symObjAddr: 0x4BD0C, symBinAddr: 0x35D20, symSize: 0xA0 }
  - { offset: 0x82032, size: 0x8, addend: 0x0, symName: '__ZN96_$LT$std..panicking..panic_handler..FormatStringPayload$u20$as$u20$core..panic..PanicPayload$GT$8take_box17hdd86d722c4344985E', symObjAddr: 0x4BDAC, symBinAddr: 0x35DC0, symSize: 0x108 }
  - { offset: 0x8231B, size: 0x8, addend: 0x0, symName: __ZN3std9panicking13resume_unwind17h031b414ab28ec741E, symObjAddr: 0x22830, symBinAddr: 0x47434, symSize: 0xB8 }
  - { offset: 0x8258A, size: 0x8, addend: 0x0, symName: __ZN3std9panicking14payload_as_str17hdb423df1d0cef46fE, symObjAddr: 0x228E8, symBinAddr: 0x223C0, symSize: 0xC8 }
  - { offset: 0x826CE, size: 0x8, addend: 0x0, symName: __ZN3std9panicking15panic_with_hook17h657ee82e431041f8E, symObjAddr: 0x229B0, symBinAddr: 0x22488, symSize: 0x388 }
  - { offset: 0x82E0E, size: 0x8, addend: 0x0, symName: '__ZN79_$LT$std..panicking..resume_unwind..RewrapBox$u20$as$u20$core..fmt..Display$GT$3fmt17head2d32346e81b0dE', symObjAddr: 0x49444, symBinAddr: 0x34F64, symSize: 0x14 }
  - { offset: 0x82E2F, size: 0x8, addend: 0x0, symName: '__ZN86_$LT$std..panicking..resume_unwind..RewrapBox$u20$as$u20$core..panic..PanicPayload$GT$3get17ha454b28cbcaab719E', symObjAddr: 0x4AC10, symBinAddr: 0x357E0, symSize: 0xC }
  - { offset: 0x82E4A, size: 0x8, addend: 0x0, symName: '__ZN86_$LT$std..panicking..resume_unwind..RewrapBox$u20$as$u20$core..panic..PanicPayload$GT$8take_box17hf076e59c669d3be5E', symObjAddr: 0x4AC1C, symBinAddr: 0x357EC, symSize: 0x1C }
  - { offset: 0x82E68, size: 0x8, addend: 0x0, symName: '__ZN86_$LT$std..panicking..resume_unwind..RewrapBox$u20$as$u20$core..panic..PanicPayload$GT$8take_box17hf076e59c669d3be5E', symObjAddr: 0x4AC1C, symBinAddr: 0x357EC, symSize: 0x1C }
  - { offset: 0x82F36, size: 0x8, addend: 0x0, symName: __ZN3std3sys2io5error4unix17decode_error_kind17hff5d5a7d554d5adfE, symObjAddr: 0x13FC0, symBinAddr: 0x201E8, symSize: 0x150 }
  - { offset: 0x82FE6, size: 0x8, addend: 0x0, symName: __ZN3std3sys3pal4unix4sync5mutex5Mutex4init17hf94936681caac3c3E, symObjAddr: 0x16C88, symBinAddr: 0x20698, symSize: 0x168 }
  - { offset: 0x8307F, size: 0x8, addend: 0x0, symName: __ZN3std3sys3pal4unix4sync5mutex5Mutex4lock17h8bb1e91d7d7c25e1E, symObjAddr: 0x16DF0, symBinAddr: 0x20800, symSize: 0x1C }
  - { offset: 0x83093, size: 0x8, addend: 0x0, symName: __ZN3std3sys3pal4unix4sync5mutex5Mutex6unlock17hb12cc63852d40a98E, symObjAddr: 0x16EE0, symBinAddr: 0x2081C, symSize: 0x4 }
  - { offset: 0x830DE, size: 0x8, addend: 0x0, symName: __ZN3std3sys3pal4unix4sync5mutex5Mutex4lock4fail17h27fd9fd3f29feaf0E, symObjAddr: 0x16E0C, symBinAddr: 0x46B6C, symSize: 0xD4 }
  - { offset: 0x833CF, size: 0x8, addend: 0x0, symName: '__ZN81_$LT$std..sys..pal..unix..sync..mutex..Mutex$u20$as$u20$core..ops..drop..Drop$GT$4drop17hb6c343c4d81952b0E', symObjAddr: 0x4A0F0, symBinAddr: 0x3551C, symSize: 0x4 }
  - { offset: 0x83404, size: 0x8, addend: 0x0, symName: __ZN3std3sys3pal4unix14abort_internal17h9d0d3f88703c956aE, symObjAddr: 0x155F0, symBinAddr: 0x46B60, symSize: 0xC }
  - { offset: 0x83482, size: 0x8, addend: 0x0, symName: '__ZN64_$LT$std..sys..stdio..unix..Stderr$u20$as$u20$std..io..Write$GT$14write_vectored17h1dfb115413d1abd0E', symObjAddr: 0x450B8, symBinAddr: 0x34598, symSize: 0x54 }
  - { offset: 0x83556, size: 0x8, addend: 0x0, symName: '__ZN64_$LT$std..sys..stdio..unix..Stderr$u20$as$u20$std..io..Write$GT$17is_write_vectored17hc3c95e157df71f2eE', symObjAddr: 0x4510C, symBinAddr: 0x345EC, symSize: 0x8 }
  - { offset: 0x83570, size: 0x8, addend: 0x0, symName: '__ZN64_$LT$std..sys..stdio..unix..Stderr$u20$as$u20$std..io..Write$GT$5flush17hba49253999847814E', symObjAddr: 0x45114, symBinAddr: 0x345F4, symSize: 0x8 }
  - { offset: 0x83589, size: 0x8, addend: 0x0, symName: '__ZN64_$LT$std..sys..stdio..unix..Stderr$u20$as$u20$std..io..Write$GT$5write17h5e96bf46774afa4bE', symObjAddr: 0x4511C, symBinAddr: 0x345FC, symSize: 0x54 }
  - { offset: 0x8369F, size: 0x8, addend: 0x0, symName: __ZN3std3sys12thread_local6native5eager7destroy17h3602fea579d13560E, symObjAddr: 0xF50C, symBinAddr: 0x1FE94, symSize: 0x2C }
  - { offset: 0x8383B, size: 0x8, addend: 0x0, symName: __ZN3std3sys12thread_local5guard5apple6enable9run_dtors17h69ff88f474eb0fc5E, symObjAddr: 0xF41C, symBinAddr: 0x1FDA4, symSize: 0xF0 }
  - { offset: 0x83CCE, size: 0x8, addend: 0x0, symName: __ZN3std3sys12thread_local11destructors4list8register17h3abdc15219a0ccf3E, symObjAddr: 0xF320, symBinAddr: 0x1FCA8, symSize: 0xFC }
  - { offset: 0x83FCD, size: 0x8, addend: 0x0, symName: __ZN3std3sys3env4unix13env_read_lock17h241d394e636877e6E, symObjAddr: 0x14110, symBinAddr: 0x20338, symSize: 0x230 }
  - { offset: 0x8469A, size: 0x8, addend: 0x0, symName: '__ZN3std3sys3env4unix6getenv28_$u7b$$u7b$closure$u7d$$u7d$17hd12705d8ea4f9388E', symObjAddr: 0x14340, symBinAddr: 0x20568, symSize: 0x130 }
  - { offset: 0x848E4, size: 0x8, addend: 0x0, symName: __ZN3std3sys2fs4unix4File6open_c17h0466f5a622c2e68fE, symObjAddr: 0x12834, symBinAddr: 0x1FECC, symSize: 0x1A0 }
  - { offset: 0x849D4, size: 0x8, addend: 0x0, symName: '__ZN3std3sys2fs4unix4File4open28_$u7b$$u7b$closure$u7d$$u7d$17h739076fad15b2b12E', symObjAddr: 0x127D4, symBinAddr: 0x1FEC0, symSize: 0xC }
  - { offset: 0x84A6E, size: 0x8, addend: 0x0, symName: '__ZN71_$LT$std..sys..fs..unix..DirStream$u20$as$u20$core..ops..drop..Drop$GT$4drop17hf42a3659fe80ec27E', symObjAddr: 0x466FC, symBinAddr: 0x34C20, symSize: 0xB4 }
  - { offset: 0x84B36, size: 0x8, addend: 0x0, symName: __ZN3std3sys2fs8read_dir17ha353ee9b9b706035E, symObjAddr: 0x13864, symBinAddr: 0x2006C, symSize: 0x17C }
  - { offset: 0x84E62, size: 0x8, addend: 0x0, symName: __ZN3std3sys7helpers14small_c_string24run_with_cstr_allocating17h13f241f78bd1aa0fE, symObjAddr: 0x189D4, symBinAddr: 0x46FA4, symSize: 0xD0 }
  - { offset: 0x85081, size: 0x8, addend: 0x0, symName: __ZN3std3sys7helpers14small_c_string24run_with_cstr_allocating17h2460fb7524d8e978E, symObjAddr: 0x18AA4, symBinAddr: 0x47074, symSize: 0xA4 }
  - { offset: 0x8522E, size: 0x8, addend: 0x0, symName: __ZN3std3sys7helpers14small_c_string24run_with_cstr_allocating17h90fbf2db768bc17cE, symObjAddr: 0x18C08, symBinAddr: 0x47118, symSize: 0xB4 }
  - { offset: 0x8551D, size: 0x8, addend: 0x0, symName: '__ZN3std3sys4sync8once_box16OnceBox$LT$T$GT$10initialize17ha73e983f6384fc41E', symObjAddr: 0x18194, symBinAddr: 0x46EC0, symSize: 0xE4 }
  - { offset: 0x857CC, size: 0x8, addend: 0x0, symName: '__ZN79_$LT$std..sys..sync..mutex..pthread..Mutex$u20$as$u20$core..ops..drop..Drop$GT$4drop17h5c18172b09fb25e9E', symObjAddr: 0x494AC, symBinAddr: 0x34F78, symSize: 0x58 }
  - { offset: 0x8591C, size: 0x8, addend: 0x0, symName: __ZN3std3sys4sync4once5queue4Once4call17hc3cb84e2dfd92ad0E, symObjAddr: 0x175A8, symBinAddr: 0x46C40, symSize: 0x200 }
  - { offset: 0x85BCB, size: 0x8, addend: 0x0, symName: '__ZN82_$LT$std..sys..sync..once..queue..WaiterQueue$u20$as$u20$core..ops..drop..Drop$GT$4drop17hecfff6284036590bE', symObjAddr: 0x4A558, symBinAddr: 0x35520, symSize: 0xDC }
  - { offset: 0x85DBB, size: 0x8, addend: 0x0, symName: __ZN3std3sys4sync4once5queue4wait17h9062e2d37e9dc0d7E, symObjAddr: 0x17974, symBinAddr: 0x20840, symSize: 0x184 }
  - { offset: 0x86330, size: 0x8, addend: 0x0, symName: __ZN3std3sys4sync6rwlock5queue6RwLock12unlock_queue17h748b73aedc25d007E, symObjAddr: 0x17B0C, symBinAddr: 0x209C4, symSize: 0x1BC }
  - { offset: 0x8698E, size: 0x8, addend: 0x0, symName: __ZN3std3sys4sync6rwlock5queue6RwLock16unlock_contended17he7ce9de1643dcbc4E, symObjAddr: 0x17FC4, symBinAddr: 0x46E40, symSize: 0x40 }
  - { offset: 0x86A55, size: 0x8, addend: 0x0, symName: __ZN3std3sys4sync6rwlock5queue6RwLock21read_unlock_contended17hb6fd5aa1819f6bd0E, symObjAddr: 0x18004, symBinAddr: 0x46E80, symSize: 0x40 }
  - { offset: 0x86A73, size: 0x8, addend: 0x0, symName: __ZN3std3sys4sync6rwlock5queue6RwLock21read_unlock_contended17hb6fd5aa1819f6bd0E, symObjAddr: 0x18004, symBinAddr: 0x46E80, symSize: 0x40 }
  - { offset: 0x86A88, size: 0x8, addend: 0x0, symName: __ZN3std3sys4sync6rwlock5queue6RwLock21read_unlock_contended17hb6fd5aa1819f6bd0E, symObjAddr: 0x18004, symBinAddr: 0x46E80, symSize: 0x40 }
  - { offset: 0x86CA3, size: 0x8, addend: 0x0, symName: '__ZN83_$LT$std..sys..sync..rwlock..queue..PanicGuard$u20$as$u20$core..ops..drop..Drop$GT$4drop17h8a72ff712470b11eE', symObjAddr: 0x4A7D4, symBinAddr: 0x4A860, symSize: 0x30 }
  - { offset: 0x86CDC, size: 0x8, addend: 0x0, symName: __ZN3std3sys4sync14thread_parking6darwin6Parker6unpark17h09ffd8278d562b8bE, symObjAddr: 0x17588, symBinAddr: 0x20820, symSize: 0x20 }
  - { offset: 0x86CF3, size: 0x8, addend: 0x0, symName: __ZN3std3sys4sync14thread_parking6darwin6Parker6unpark17h09ffd8278d562b8bE, symObjAddr: 0x17588, symBinAddr: 0x20820, symSize: 0x20 }
  - { offset: 0x86D07, size: 0x8, addend: 0x0, symName: __ZN3std3sys4sync14thread_parking6darwin6Parker6unpark17h09ffd8278d562b8bE, symObjAddr: 0x17588, symBinAddr: 0x20820, symSize: 0x20 }
  - { offset: 0x86D88, size: 0x8, addend: 0x0, symName: '__ZN3std3sys11personality3gcc14find_eh_action28_$u7b$$u7b$closure$u7d$$u7d$17h3d1279e8159cfdf3E', symObjAddr: 0xF1C0, symBinAddr: 0x1FB48, symSize: 0xC }
  - { offset: 0x86D9C, size: 0x8, addend: 0x0, symName: '__ZN3std3sys11personality3gcc14find_eh_action28_$u7b$$u7b$closure$u7d$$u7d$17h73cb4bcf8a3dd329E', symObjAddr: 0xF1CC, symBinAddr: 0x1FB54, symSize: 0xC }
  - { offset: 0x86DE4, size: 0x8, addend: 0x0, symName: _rust_eh_personality, symObjAddr: 0x4EA88, symBinAddr: 0x387C4, symSize: 0x378 }
  - { offset: 0x871FA, size: 0x8, addend: 0x0, symName: __ZN3std3sys11personality5dwarf2eh19read_encoded_offset17h87b06c5a3076dfe8E, symObjAddr: 0xF1D8, symBinAddr: 0x1FB60, symSize: 0x148 }
  - { offset: 0x873F8, size: 0x8, addend: 0x0, symName: '__ZN3std3sys9backtrace10_print_fmt28_$u7b$$u7b$closure$u7d$$u7d$17h3eed6b308b6ef3c3E', symObjAddr: 0x1B9E8, symBinAddr: 0x20B80, symSize: 0x24 }
  - { offset: 0x87421, size: 0x8, addend: 0x0, symName: '__ZN3std3sys9backtrace10_print_fmt28_$u7b$$u7b$closure$u7d$$u7d$17hb5bdc4957bce0fcfE', symObjAddr: 0x1BA0C, symBinAddr: 0x20BA4, symSize: 0x134 }
  - { offset: 0x8750C, size: 0x8, addend: 0x0, symName: '__ZN3std3sys9backtrace10_print_fmt28_$u7b$$u7b$closure$u7d$$u7d$28_$u7b$$u7b$closure$u7d$$u7d$17hd70ad3dad3287948E', symObjAddr: 0x1BB40, symBinAddr: 0x20CD8, symSize: 0x244 }
  - { offset: 0x87732, size: 0x8, addend: 0x0, symName: __ZN3std3sys9backtrace15output_filename17hd1e4e29bcc40a7e5E, symObjAddr: 0x1BD84, symBinAddr: 0x20F1C, symSize: 0xE0 }
  - { offset: 0x87873, size: 0x8, addend: 0x0, symName: __ZN3std3sys9backtrace26__rust_end_short_backtrace17hbd8bf96e4ee54567E, symObjAddr: 0x1BE70, symBinAddr: 0x20FFC, symSize: 0xC }
  - { offset: 0x8788D, size: 0x8, addend: 0x0, symName: __ZN3std3sys9backtrace26__rust_end_short_backtrace17hd0ebba2ea28c8fdaE, symObjAddr: 0x1BE7C, symBinAddr: 0x471CC, symSize: 0xC }
  - { offset: 0x878A6, size: 0x8, addend: 0x0, symName: __ZN3std3sys9backtrace4lock17h495d8d49f62939aaE, symObjAddr: 0x1BE88, symBinAddr: 0x21008, symSize: 0x70 }
  - { offset: 0x87A23, size: 0x8, addend: 0x0, symName: '__ZN98_$LT$std..sys..backtrace..BacktraceLock..print..DisplayBacktrace$u20$as$u20$core..fmt..Display$GT$3fmt17hbeea7a819b623c65E', symObjAddr: 0x4C080, symBinAddr: 0x35EC8, symSize: 0x210 }
  - { offset: 0x88017, size: 0x8, addend: 0x0, symName: __RNvCs1Y7DaGC1cwg_7___rustc11___rdl_alloc, symObjAddr: 0x48, symBinAddr: 0x181F0, symSize: 0x6C }
  - { offset: 0x88095, size: 0x8, addend: 0x0, symName: __RNvCs1Y7DaGC1cwg_7___rustc13___rdl_dealloc, symObjAddr: 0xC0, symBinAddr: 0x1825C, symSize: 0x4 }
  - { offset: 0x880B3, size: 0x8, addend: 0x0, symName: __RNvCs1Y7DaGC1cwg_7___rustc13___rdl_dealloc, symObjAddr: 0xC0, symBinAddr: 0x1825C, symSize: 0x4 }
  - { offset: 0x880C5, size: 0x8, addend: 0x0, symName: __RNvCs1Y7DaGC1cwg_7___rustc13___rdl_realloc, symObjAddr: 0xC4, symBinAddr: 0x18260, symSize: 0xB0 }
  - { offset: 0x88198, size: 0x8, addend: 0x0, symName: __RNvCs1Y7DaGC1cwg_7___rustc18___rdl_alloc_zeroed, symObjAddr: 0x2AC, symBinAddr: 0x18448, symSize: 0x90 }
  - { offset: 0x8823C, size: 0x8, addend: 0x0, symName: __RNvCs1Y7DaGC1cwg_7___rustc26___rust_alloc_error_handler, symObjAddr: 0x454, symBinAddr: 0x46B48, symSize: 0x18 }
  - { offset: 0x88281, size: 0x8, addend: 0x0, symName: __ZN3std5alloc24default_alloc_error_hook17h5aee8ad0f1e6bb33E, symObjAddr: 0x1FAB0, symBinAddr: 0x21828, symSize: 0x108 }
  - { offset: 0x882F1, size: 0x8, addend: 0x0, symName: __ZN3std5alloc8rust_oom17h01e17934033662bdE, symObjAddr: 0x1FBB8, symBinAddr: 0x471D8, symSize: 0x18 }
  - { offset: 0x88311, size: 0x8, addend: 0x0, symName: '__ZN3std5alloc8rust_oom28_$u7b$$u7b$closure$u7d$$u7d$17h595b3d07c5ad9c69E', symObjAddr: 0x1FBD0, symBinAddr: 0x471F0, symSize: 0x34 }
  - { offset: 0x883D2, size: 0x8, addend: 0x0, symName: __ZN3std2io5error5Error3new17h311cf880a0f7d574E, symObjAddr: 0x9B24, symBinAddr: 0x1EC10, symSize: 0x110 }
  - { offset: 0x88850, size: 0x8, addend: 0x0, symName: '__ZN3std2io5error83_$LT$impl$u20$core..fmt..Debug$u20$for$u20$std..io..error..repr_bitpacked..Repr$GT$3fmt17h138a79c2031d6f53E', symObjAddr: 0x9CB0, symBinAddr: 0x1ED20, symSize: 0x280 }
  - { offset: 0x88AEA, size: 0x8, addend: 0x0, symName: '__ZN58_$LT$std..io..error..Error$u20$as$u20$core..fmt..Debug$GT$3fmt17h4f9296e90cd4afe5E', symObjAddr: 0x33F64, symBinAddr: 0x2C844, symSize: 0x4 }
  - { offset: 0x88B03, size: 0x8, addend: 0x0, symName: '__ZN60_$LT$std..io..error..Error$u20$as$u20$core..fmt..Display$GT$3fmt17hf61de93af5dc52bcE', symObjAddr: 0x411B0, symBinAddr: 0x33F14, symSize: 0x1A8 }
  - { offset: 0x88D7A, size: 0x8, addend: 0x0, symName: '__ZN62_$LT$std..io..error..ErrorKind$u20$as$u20$core..fmt..Debug$GT$3fmt17h1b87b50d1e7ac6f3E', symObjAddr: 0x43C1C, symBinAddr: 0x34478, symSize: 0x28 }
  - { offset: 0x88DB5, size: 0x8, addend: 0x0, symName: __ZN3std2io5Write18write_all_vectored17h421707584f7f4b95E, symObjAddr: 0x94D4, symBinAddr: 0x1E698, symSize: 0x184 }
  - { offset: 0x88FBB, size: 0x8, addend: 0x0, symName: __ZN3std2io5Write9write_all17hb0ca647d4a285b11E, symObjAddr: 0x9658, symBinAddr: 0x1E81C, symSize: 0xAC }
  - { offset: 0x8907E, size: 0x8, addend: 0x0, symName: __ZN3std2io5Write9write_fmt17h551617a333346f25E, symObjAddr: 0x9704, symBinAddr: 0x1E8C8, symSize: 0x118 }
  - { offset: 0x8935F, size: 0x8, addend: 0x0, symName: __ZN3std2io5Write9write_fmt17h6157f3eb9603e960E, symObjAddr: 0x981C, symBinAddr: 0x1E9E0, symSize: 0x118 }
  - { offset: 0x8963F, size: 0x8, addend: 0x0, symName: __ZN3std2io5Write9write_fmt17hdd87f23e14dc5d26E, symObjAddr: 0x9934, symBinAddr: 0x1EAF8, symSize: 0x118 }
  - { offset: 0x89963, size: 0x8, addend: 0x0, symName: __ZN3std2io5stdio22try_set_output_capture17h0403b74545fa0019E, symObjAddr: 0xA440, symBinAddr: 0x1F3AC, symSize: 0xEC }
  - { offset: 0x89C15, size: 0x8, addend: 0x0, symName: __ZN3std2io5stdio31print_to_buffer_if_capture_used17h3ecbdff8687b0a77E, symObjAddr: 0xA608, symBinAddr: 0x1F498, symSize: 0x214 }
  - { offset: 0x8A39B, size: 0x8, addend: 0x0, symName: __ZN3std2io5stdio6Stderr4lock17h80585519963a9b67E, symObjAddr: 0xAA80, symBinAddr: 0x1F6AC, symSize: 0xE4 }
  - { offset: 0x8A643, size: 0x8, addend: 0x0, symName: __ZN3std2io5stdio7_eprint17h51dcc255cdd7ed50E, symObjAddr: 0xAC74, symBinAddr: 0x1F790, symSize: 0xC0 }
  - { offset: 0x8A686, size: 0x8, addend: 0x0, symName: '__ZN61_$LT$$RF$std..io..stdio..Stderr$u20$as$u20$std..io..Write$GT$9write_fmt17h87e205484653a39aE', symObjAddr: 0x42258, symBinAddr: 0x340BC, symSize: 0x184 }
  - { offset: 0x8AB10, size: 0x8, addend: 0x0, symName: '__ZN61_$LT$std..io..stdio..StderrLock$u20$as$u20$std..io..Write$GT$9write_all17h53bad3e6d565d56fE', symObjAddr: 0x42B6C, symBinAddr: 0x34240, symSize: 0x104 }
  - { offset: 0x8ADC6, size: 0x8, addend: 0x0, symName: '__ZN3std2io5impls74_$LT$impl$u20$std..io..Write$u20$for$u20$alloc..vec..Vec$LT$u8$C$A$GT$$GT$14write_vectored17h1d26efe2e39335c5E', symObjAddr: 0x9F30, symBinAddr: 0x1EFA0, symSize: 0x184 }
  - { offset: 0x8B015, size: 0x8, addend: 0x0, symName: '__ZN3std2io5impls74_$LT$impl$u20$std..io..Write$u20$for$u20$alloc..vec..Vec$LT$u8$C$A$GT$$GT$17is_write_vectored17h4c8c7a7ea831e82cE', symObjAddr: 0xA0B4, symBinAddr: 0x1F124, symSize: 0x8 }
  - { offset: 0x8B03D, size: 0x8, addend: 0x0, symName: '__ZN3std2io5impls74_$LT$impl$u20$std..io..Write$u20$for$u20$alloc..vec..Vec$LT$u8$C$A$GT$$GT$18write_all_vectored17h98cd6075009866ebE', symObjAddr: 0xA0BC, symBinAddr: 0x1F12C, symSize: 0x174 }
  - { offset: 0x8B05B, size: 0x8, addend: 0x0, symName: '__ZN3std2io5impls74_$LT$impl$u20$std..io..Write$u20$for$u20$alloc..vec..Vec$LT$u8$C$A$GT$$GT$18write_all_vectored17h98cd6075009866ebE', symObjAddr: 0xA0BC, symBinAddr: 0x1F12C, symSize: 0x174 }
  - { offset: 0x8B070, size: 0x8, addend: 0x0, symName: '__ZN3std2io5impls74_$LT$impl$u20$std..io..Write$u20$for$u20$alloc..vec..Vec$LT$u8$C$A$GT$$GT$18write_all_vectored17h98cd6075009866ebE', symObjAddr: 0xA0BC, symBinAddr: 0x1F12C, symSize: 0x174 }
  - { offset: 0x8B085, size: 0x8, addend: 0x0, symName: '__ZN3std2io5impls74_$LT$impl$u20$std..io..Write$u20$for$u20$alloc..vec..Vec$LT$u8$C$A$GT$$GT$18write_all_vectored17h98cd6075009866ebE', symObjAddr: 0xA0BC, symBinAddr: 0x1F12C, symSize: 0x174 }
  - { offset: 0x8B09A, size: 0x8, addend: 0x0, symName: '__ZN3std2io5impls74_$LT$impl$u20$std..io..Write$u20$for$u20$alloc..vec..Vec$LT$u8$C$A$GT$$GT$18write_all_vectored17h98cd6075009866ebE', symObjAddr: 0xA0BC, symBinAddr: 0x1F12C, symSize: 0x174 }
  - { offset: 0x8B0AE, size: 0x8, addend: 0x0, symName: '__ZN3std2io5impls74_$LT$impl$u20$std..io..Write$u20$for$u20$alloc..vec..Vec$LT$u8$C$A$GT$$GT$18write_all_vectored17h98cd6075009866ebE', symObjAddr: 0xA0BC, symBinAddr: 0x1F12C, symSize: 0x174 }
  - { offset: 0x8B2E1, size: 0x8, addend: 0x0, symName: '__ZN3std2io5impls74_$LT$impl$u20$std..io..Write$u20$for$u20$alloc..vec..Vec$LT$u8$C$A$GT$$GT$5flush17h277156ea67d7ce12E', symObjAddr: 0xA230, symBinAddr: 0x1F2A0, symSize: 0x8 }
  - { offset: 0x8B2FC, size: 0x8, addend: 0x0, symName: '__ZN3std2io5impls74_$LT$impl$u20$std..io..Write$u20$for$u20$alloc..vec..Vec$LT$u8$C$A$GT$$GT$5write17h174138f880b4b9cdE', symObjAddr: 0xA238, symBinAddr: 0x1F2A8, symSize: 0x84 }
  - { offset: 0x8B440, size: 0x8, addend: 0x0, symName: '__ZN3std2io5impls74_$LT$impl$u20$std..io..Write$u20$for$u20$alloc..vec..Vec$LT$u8$C$A$GT$$GT$9write_all17h90d5ab4ee7dcd2fcE', symObjAddr: 0xA2BC, symBinAddr: 0x1F32C, symSize: 0x80 }
  - { offset: 0x8B69F, size: 0x8, addend: 0x0, symName: '__ZN81_$LT$std..io..default_write_fmt..Adapter$LT$T$GT$$u20$as$u20$core..fmt..Write$GT$9write_str17h30646592fed809f2E', symObjAddr: 0x49A70, symBinAddr: 0x352D4, symSize: 0x50 }
  - { offset: 0x8B6C8, size: 0x8, addend: 0x0, symName: '__ZN81_$LT$std..io..default_write_fmt..Adapter$LT$T$GT$$u20$as$u20$core..fmt..Write$GT$9write_str17h4a2efdcbebafcd88E', symObjAddr: 0x49AC0, symBinAddr: 0x35324, symSize: 0xA0 }
  - { offset: 0x8B7F3, size: 0x8, addend: 0x0, symName: '__ZN81_$LT$std..io..default_write_fmt..Adapter$LT$T$GT$$u20$as$u20$core..fmt..Write$GT$9write_str17h72bb088ef25ac4caE', symObjAddr: 0x49B60, symBinAddr: 0x353C4, symSize: 0x80 }
  - { offset: 0x8B93E, size: 0x8, addend: 0x0, symName: '__ZN81_$LT$std..io..default_write_fmt..Adapter$LT$T$GT$$u20$as$u20$core..fmt..Write$GT$9write_str17hacd329136046d3fcE', symObjAddr: 0x49CB8, symBinAddr: 0x35444, symSize: 0xD8 }
  - { offset: 0x8BA5C, size: 0x8, addend: 0x0, symName: __ZN3std7process5abort17hd520a7101c5fdc83E, symObjAddr: 0x21620, symBinAddr: 0x473BC, symSize: 0xC }
  - { offset: 0x8BB2A, size: 0x8, addend: 0x0, symName: __ZN3std4path4Path13_strip_prefix17h69656aba777a9befE, symObjAddr: 0x1CCF4, symBinAddr: 0x21410, symSize: 0x21C }
  - { offset: 0x8BC39, size: 0x8, addend: 0x0, symName: __ZN3std4path4Path5_join17h46a64ed49ec529e9E, symObjAddr: 0x1D5D4, symBinAddr: 0x2162C, symSize: 0x184 }
  - { offset: 0x8C19F, size: 0x8, addend: 0x0, symName: __ZN3std4path10Components25parse_next_component_back17h728c4dce095122cdE, symObjAddr: 0x1BEF8, symBinAddr: 0x21078, symSize: 0x160 }
  - { offset: 0x8C2F6, size: 0x8, addend: 0x0, symName: __ZN3std4path10Components7as_path17h079cc95f14999833E, symObjAddr: 0x1C058, symBinAddr: 0x211D8, symSize: 0x238 }
  - { offset: 0x8C4F0, size: 0x8, addend: 0x0, symName: '__ZN61_$LT$std..path..Component$u20$as$u20$core..cmp..PartialEq$GT$2eq17h148d6b0dec97faa9E', symObjAddr: 0x4344C, symBinAddr: 0x34344, symSize: 0x134 }
  - { offset: 0x8C649, size: 0x8, addend: 0x0, symName: '__ZN80_$LT$std..path..Components$u20$as$u20$core..iter..traits..iterator..Iterator$GT$4next17h2e9501df58ad8270E', symObjAddr: 0x49504, symBinAddr: 0x34FD0, symSize: 0x304 }
  - { offset: 0x8C74D, size: 0x8, addend: 0x0, symName: '__ZN95_$LT$std..path..Components$u20$as$u20$core..iter..traits..double_ended..DoubleEndedIterator$GT$9next_back17h56b072ed5e68aa84E', symObjAddr: 0x4B8B4, symBinAddr: 0x35904, symSize: 0x41C }
  - { offset: 0x8C8B2, size: 0x8, addend: 0x0, symName: '__ZN126_$LT$std..thread..thread..thread_name_string..ThreadNameString$u20$as$u20$core..convert..From$LT$alloc..string..String$GT$$GT$4from17h8e9760acf0402cf0E', symObjAddr: 0xB28, symBinAddr: 0x185F0, symSize: 0x128 }
  - { offset: 0x8CB1E, size: 0x8, addend: 0x0, symName: __ZN3std6thread6thread6Thread3new17h1b33bfb19256fc2cE, symObjAddr: 0x1FEEC, symBinAddr: 0x21A4C, symSize: 0x18C }
  - { offset: 0x8CF31, size: 0x8, addend: 0x0, symName: __ZN3std6thread5local18panic_access_error17hebb7068053c3bb3bE, symObjAddr: 0x1FDA0, symBinAddr: 0x47250, symSize: 0x30 }
  - { offset: 0x8CF51, size: 0x8, addend: 0x0, symName: '__ZN68_$LT$std..thread..local..AccessError$u20$as$u20$core..fmt..Debug$GT$3fmt17h059423669edbf4f4E', symObjAddr: 0x45DE4, symBinAddr: 0x34650, symSize: 0x38 }
  - { offset: 0x8CF8A, size: 0x8, addend: 0x0, symName: __ZN3std6thread9functions4park17h09642b76f6883e9fE, symObjAddr: 0x209B4, symBinAddr: 0x21F88, symSize: 0xC8 }
  - { offset: 0x8D1C0, size: 0x8, addend: 0x0, symName: '__ZN76_$LT$std..thread..functions..PanicGuard$u20$as$u20$core..ops..drop..Drop$GT$4drop17h0d0d46041c325962E', symObjAddr: 0x47ED4, symBinAddr: 0x4A830, symSize: 0x30 }
  - { offset: 0x8D2BA, size: 0x8, addend: 0x0, symName: '__ZN3std6thread7current17with_current_name28_$u7b$$u7b$closure$u7d$$u7d$17h52cf6d274de52f4dE', symObjAddr: 0x202C8, symBinAddr: 0x21BD8, symSize: 0x368 }
  - { offset: 0x8DAE5, size: 0x8, addend: 0x0, symName: __ZN3std6thread7current12init_current17hefc330fd1d3ddbbaE, symObjAddr: 0x2018C, symBinAddr: 0x47280, symSize: 0x13C }
  - { offset: 0x8DDB6, size: 0x8, addend: 0x0, symName: __ZN3std6thread7current7current17hb53e95d0fc67af63E, symObjAddr: 0x206EC, symBinAddr: 0x21F40, symSize: 0x48 }
  - { offset: 0x8DEE8, size: 0x8, addend: 0x0, symName: __ZN3std6thread2id8ThreadId3new9exhausted17h06e90dbe4cc0d83cE, symObjAddr: 0x1FD80, symBinAddr: 0x47230, symSize: 0x20 }
  - { offset: 0x8DF40, size: 0x8, addend: 0x0, symName: __ZN3std12backtrace_rs5print17BacktraceFrameFmt21print_raw_with_column17h72538a2b7bead287E, symObjAddr: 0xCD0, symBinAddr: 0x18754, symSize: 0x378 }
  - { offset: 0x8E20E, size: 0x8, addend: 0x0, symName: __ZN3std12backtrace_rs9backtrace9libunwind5trace8trace_fn17h73fe0b2dd7d7e016E, symObjAddr: 0x1048, symBinAddr: 0x18ACC, symSize: 0x48 }
  - { offset: 0x8E2C4, size: 0x8, addend: 0x0, symName: __ZN3std12backtrace_rs9symbolize5gimli4mmap17ha1d9cf74d583e70eE, symObjAddr: 0x1090, symBinAddr: 0x18B14, symSize: 0x1FC }
  - { offset: 0x8E87B, size: 0x8, addend: 0x0, symName: __ZN3std12backtrace_rs9symbolize5gimli5macho11find_header17hb81c5e0965dadc43E, symObjAddr: 0x128C, symBinAddr: 0x18D10, symSize: 0x1E4 }
  - { offset: 0x8E898, size: 0x8, addend: 0x0, symName: __ZN3std12backtrace_rs9symbolize5gimli5macho11find_header17hb81c5e0965dadc43E, symObjAddr: 0x128C, symBinAddr: 0x18D10, symSize: 0x1E4 }
  - { offset: 0x8E8AC, size: 0x8, addend: 0x0, symName: __ZN3std12backtrace_rs9symbolize5gimli5macho11find_header17hb81c5e0965dadc43E, symObjAddr: 0x128C, symBinAddr: 0x18D10, symSize: 0x1E4 }
  - { offset: 0x8E8C0, size: 0x8, addend: 0x0, symName: __ZN3std12backtrace_rs9symbolize5gimli5macho11find_header17hb81c5e0965dadc43E, symObjAddr: 0x128C, symBinAddr: 0x18D10, symSize: 0x1E4 }
  - { offset: 0x8E8D4, size: 0x8, addend: 0x0, symName: __ZN3std12backtrace_rs9symbolize5gimli5macho11find_header17hb81c5e0965dadc43E, symObjAddr: 0x128C, symBinAddr: 0x18D10, symSize: 0x1E4 }
  - { offset: 0x8E8E9, size: 0x8, addend: 0x0, symName: __ZN3std12backtrace_rs9symbolize5gimli5macho11find_header17hb81c5e0965dadc43E, symObjAddr: 0x128C, symBinAddr: 0x18D10, symSize: 0x1E4 }
  - { offset: 0x8E8FE, size: 0x8, addend: 0x0, symName: __ZN3std12backtrace_rs9symbolize5gimli5macho11find_header17hb81c5e0965dadc43E, symObjAddr: 0x128C, symBinAddr: 0x18D10, symSize: 0x1E4 }
  - { offset: 0x8EFFE, size: 0x8, addend: 0x0, symName: __ZN3std12backtrace_rs9symbolize5gimli5macho6Object5parse17hfeb86c29413e7775E, symObjAddr: 0x1470, symBinAddr: 0x18EF4, symSize: 0xC9C }
  - { offset: 0x90F20, size: 0x8, addend: 0x0, symName: __ZN3std12backtrace_rs9symbolize5gimli5macho6Object7section17he8d0fb77ef28a235E, symObjAddr: 0x210C, symBinAddr: 0x19B90, symSize: 0x154 }
  - { offset: 0x91304, size: 0x8, addend: 0x0, symName: __ZN3std12backtrace_rs9symbolize5gimli7Context11find_frames17h5c29678ead51124cE, symObjAddr: 0x2260, symBinAddr: 0x19CE4, symSize: 0x398 }
  - { offset: 0x91738, size: 0x8, addend: 0x0, symName: __ZN3std12backtrace_rs9symbolize5gimli7Context3new17hc9c00ac88be32e35E, symObjAddr: 0x25F8, symBinAddr: 0x1A07C, symSize: 0x1EDC }
  - { offset: 0x95C0B, size: 0x8, addend: 0x0, symName: __ZN3std12backtrace_rs9symbolize5gimli7resolve17h86198766ad4b1de0E, symObjAddr: 0x44D4, symBinAddr: 0x1BF58, symSize: 0x266C }
  - { offset: 0x9BA86, size: 0x8, addend: 0x0, symName: __ZN3std12backtrace_rs9symbolize6Symbol4name17h91d4c127fa474decE, symObjAddr: 0x6B78, symBinAddr: 0x1E5C4, symSize: 0xD4 }
  - { offset: 0x9BBEF, size: 0x8, addend: 0x0, symName: '__ZN79_$LT$std..backtrace_rs..symbolize..SymbolName$u20$as$u20$core..fmt..Display$GT$3fmt17h3263905465bac453E', symObjAddr: 0x48CFC, symBinAddr: 0x34E60, symSize: 0x104 }
  - { offset: 0x9BD2E, size: 0x8, addend: 0x0, symName: '__ZN75_$LT$std..fs..ReadDir$u20$as$u20$core..iter..traits..iterator..Iterator$GT$4next17hcbd8a6bdaabc6208E', symObjAddr: 0x476E8, symBinAddr: 0x34CD4, symSize: 0x18C }
  - { offset: 0x9C129, size: 0x8, addend: 0x0, symName: '__ZN64_$LT$std..ffi..os_str..Display$u20$as$u20$core..fmt..Display$GT$3fmt17h06fde4b289bd67d3E', symObjAddr: 0x44DA0, symBinAddr: 0x344EC, symSize: 0xAC }
  - { offset: 0x9C1AB, size: 0x8, addend: 0x0, symName: '__ZN3std4sync6poison5mutex14Mutex$LT$T$GT$4lock17h6e288e1ed2fa0519E', symObjAddr: 0x1F060, symBinAddr: 0x217B0, symSize: 0x78 }
  - { offset: 0x9C48E, size: 0x8, addend: 0x0, symName: __ZN3std5panic13resume_unwind17h77dd1fc5a43b371aE, symObjAddr: 0x1FC04, symBinAddr: 0x47224, symSize: 0xC }
  - { offset: 0x9C4BB, size: 0x8, addend: 0x0, symName: __ZN3std5panic19get_backtrace_style17h7eb4927f404d6282E, symObjAddr: 0x1FC10, symBinAddr: 0x21930, symSize: 0x11C }
  - { offset: 0x9C4D9, size: 0x8, addend: 0x0, symName: __ZN3std5panic19get_backtrace_style17h7eb4927f404d6282E, symObjAddr: 0x1FC10, symBinAddr: 0x21930, symSize: 0x11C }
  - { offset: 0x9C4EE, size: 0x8, addend: 0x0, symName: __ZN3std5panic19get_backtrace_style17h7eb4927f404d6282E, symObjAddr: 0x1FC10, symBinAddr: 0x21930, symSize: 0x11C }
  - { offset: 0x9CA30, size: 0x8, addend: 0x0, symName: __ZN3std3env11current_dir17h5e532d94e2edd6d2E, symObjAddr: 0xCA7C, symBinAddr: 0x1F850, symSize: 0x18C }
  - { offset: 0x9CEA2, size: 0x8, addend: 0x0, symName: __ZN3std3env7_var_os17h2d2f9b79b0e6ab7cE, symObjAddr: 0xCD74, symBinAddr: 0x1F9DC, symSize: 0x16C }
  - { offset: 0x9EC74, size: 0x8, addend: 0x0, symName: '__ZN4core3ptr107drop_in_place$LT$core..pin..Pin$LT$alloc..boxed..Box$LT$std..sys..pal..unix..sync..mutex..Mutex$GT$$GT$$GT$17h3aaf77ef2646f751E', symObjAddr: 0x24C90, symBinAddr: 0x22F70, symSize: 0x2C }
  - { offset: 0x9ED36, size: 0x8, addend: 0x0, symName: '__ZN4core3ptr109drop_in_place$LT$alloc..sync..Arc$LT$std..sync..poison..mutex..Mutex$LT$alloc..vec..Vec$LT$u8$GT$$GT$$GT$$GT$17hda607f3b613eed0eE', symObjAddr: 0x24CBC, symBinAddr: 0x22F9C, symSize: 0x20 }
  - { offset: 0x9ED4D, size: 0x8, addend: 0x0, symName: '__ZN4core3ptr109drop_in_place$LT$alloc..sync..Arc$LT$std..sync..poison..mutex..Mutex$LT$alloc..vec..Vec$LT$u8$GT$$GT$$GT$$GT$17hda607f3b613eed0eE', symObjAddr: 0x24CBC, symBinAddr: 0x22F9C, symSize: 0x20 }
  - { offset: 0x9ED62, size: 0x8, addend: 0x0, symName: '__ZN4core3ptr109drop_in_place$LT$alloc..sync..Arc$LT$std..sync..poison..mutex..Mutex$LT$alloc..vec..Vec$LT$u8$GT$$GT$$GT$$GT$17hda607f3b613eed0eE', symObjAddr: 0x24CBC, symBinAddr: 0x22F9C, symSize: 0x20 }
  - { offset: 0x9ED77, size: 0x8, addend: 0x0, symName: '__ZN4core3ptr109drop_in_place$LT$alloc..sync..Arc$LT$std..sync..poison..mutex..Mutex$LT$alloc..vec..Vec$LT$u8$GT$$GT$$GT$$GT$17hda607f3b613eed0eE', symObjAddr: 0x24CBC, symBinAddr: 0x22F9C, symSize: 0x20 }
  - { offset: 0x9EDCB, size: 0x8, addend: 0x0, symName: '__ZN4core3ptr119drop_in_place$LT$std..io..default_write_fmt..Adapter$LT$std..io..cursor..Cursor$LT$$RF$mut$u20$$u5b$u8$u5d$$GT$$GT$$GT$17h43c163d7220ed1c9E', symObjAddr: 0x24D58, symBinAddr: 0x22FBC, symSize: 0x10 }
  - { offset: 0x9EDE2, size: 0x8, addend: 0x0, symName: '__ZN4core3ptr119drop_in_place$LT$std..io..default_write_fmt..Adapter$LT$std..io..cursor..Cursor$LT$$RF$mut$u20$$u5b$u8$u5d$$GT$$GT$$GT$17h43c163d7220ed1c9E', symObjAddr: 0x24D58, symBinAddr: 0x22FBC, symSize: 0x10 }
  - { offset: 0x9EDF4, size: 0x8, addend: 0x0, symName: '__ZN4core3ptr123drop_in_place$LT$addr2line..Context$LT$gimli..read..endian_slice..EndianSlice$LT$gimli..endianity..LittleEndian$GT$$GT$$GT$17hbcf72d1bc339d862E', symObjAddr: 0x24D68, symBinAddr: 0x22FCC, symSize: 0x70 }
  - { offset: 0x9EEFA, size: 0x8, addend: 0x0, symName: '__ZN4core3ptr129drop_in_place$LT$addr2line..unit..ResUnit$LT$gimli..read..endian_slice..EndianSlice$LT$gimli..endianity..LittleEndian$GT$$GT$$GT$17ha71cd4ad8ca92f51E', symObjAddr: 0x24F20, symBinAddr: 0x2303C, symSize: 0xE4 }
  - { offset: 0x9F11B, size: 0x8, addend: 0x0, symName: '__ZN4core3ptr129drop_in_place$LT$addr2line..unit..SupUnit$LT$gimli..read..endian_slice..EndianSlice$LT$gimli..endianity..LittleEndian$GT$$GT$$GT$17hdcaacab12c409641E', symObjAddr: 0x25004, symBinAddr: 0x23120, symSize: 0x54 }
  - { offset: 0x9F1D9, size: 0x8, addend: 0x0, symName: '__ZN4core3ptr130drop_in_place$LT$addr2line..unit..ResUnits$LT$gimli..read..endian_slice..EndianSlice$LT$gimli..endianity..LittleEndian$GT$$GT$$GT$17h63ae483049bcf3d2E', symObjAddr: 0x25058, symBinAddr: 0x23174, symSize: 0xD0 }
  - { offset: 0x9F400, size: 0x8, addend: 0x0, symName: '__ZN4core3ptr130drop_in_place$LT$addr2line..unit..SupUnits$LT$gimli..read..endian_slice..EndianSlice$LT$gimli..endianity..LittleEndian$GT$$GT$$GT$17hda109fee7e094186E', symObjAddr: 0x25128, symBinAddr: 0x23244, symSize: 0xE4 }
  - { offset: 0x9F605, size: 0x8, addend: 0x0, symName: '__ZN4core3ptr130drop_in_place$LT$gimli..read..dwarf..Dwarf$LT$gimli..read..endian_slice..EndianSlice$LT$gimli..endianity..LittleEndian$GT$$GT$$GT$17hdbe2866b20d2fcfeE', symObjAddr: 0x2520C, symBinAddr: 0x23328, symSize: 0x58 }
  - { offset: 0x9F69A, size: 0x8, addend: 0x0, symName: '__ZN4core3ptr131drop_in_place$LT$$u5b$core..option..Option$LT$core..option..Option$LT$std..backtrace_rs..symbolize..gimli..Mapping$GT$$GT$$u5d$$GT$17hd05d3f4fb2ea2296E', symObjAddr: 0x25264, symBinAddr: 0x23380, symSize: 0xCC }
  - { offset: 0x9F743, size: 0x8, addend: 0x0, symName: '__ZN4core3ptr137drop_in_place$LT$gimli..read..dwarf..Unit$LT$gimli..read..endian_slice..EndianSlice$LT$gimli..endianity..LittleEndian$GT$$C$usize$GT$$GT$17hdcb4d5c2a34ca995E', symObjAddr: 0x25330, symBinAddr: 0x2344C, symSize: 0x54 }
  - { offset: 0x9F838, size: 0x8, addend: 0x0, symName: '__ZN4core3ptr138drop_in_place$LT$addr2line..function..LazyFunction$LT$gimli..read..endian_slice..EndianSlice$LT$gimli..endianity..LittleEndian$GT$$GT$$GT$17h461cf33acc6a5599E', symObjAddr: 0x25384, symBinAddr: 0x234A0, symSize: 0x64 }
  - { offset: 0x9F84F, size: 0x8, addend: 0x0, symName: '__ZN4core3ptr138drop_in_place$LT$addr2line..function..LazyFunction$LT$gimli..read..endian_slice..EndianSlice$LT$gimli..endianity..LittleEndian$GT$$GT$$GT$17h461cf33acc6a5599E', symObjAddr: 0x25384, symBinAddr: 0x234A0, symSize: 0x64 }
  - { offset: 0x9F864, size: 0x8, addend: 0x0, symName: '__ZN4core3ptr138drop_in_place$LT$addr2line..function..LazyFunction$LT$gimli..read..endian_slice..EndianSlice$LT$gimli..endianity..LittleEndian$GT$$GT$$GT$17h461cf33acc6a5599E', symObjAddr: 0x25384, symBinAddr: 0x234A0, symSize: 0x64 }
  - { offset: 0x9F879, size: 0x8, addend: 0x0, symName: '__ZN4core3ptr138drop_in_place$LT$addr2line..function..LazyFunction$LT$gimli..read..endian_slice..EndianSlice$LT$gimli..endianity..LittleEndian$GT$$GT$$GT$17h461cf33acc6a5599E', symObjAddr: 0x25384, symBinAddr: 0x234A0, symSize: 0x64 }
  - { offset: 0x9FA02, size: 0x8, addend: 0x0, symName: '__ZN4core3ptr144drop_in_place$LT$alloc..vec..Vec$LT$core..option..Option$LT$core..option..Option$LT$std..backtrace_rs..symbolize..gimli..Mapping$GT$$GT$$GT$$GT$17he70e02edf56c9189E', symObjAddr: 0x253E8, symBinAddr: 0x23504, symSize: 0x78 }
  - { offset: 0x9FBB1, size: 0x8, addend: 0x0, symName: '__ZN4core3ptr152drop_in_place$LT$alloc..vec..Vec$LT$addr2line..unit..ResUnit$LT$gimli..read..endian_slice..EndianSlice$LT$gimli..endianity..LittleEndian$GT$$GT$$GT$$GT$17heba7c5ac9d2f820fE', symObjAddr: 0x2551C, symBinAddr: 0x2357C, symSize: 0xC4 }
  - { offset: 0x9FD75, size: 0x8, addend: 0x0, symName: '__ZN4core3ptr152drop_in_place$LT$alloc..vec..Vec$LT$addr2line..unit..SupUnit$LT$gimli..read..endian_slice..EndianSlice$LT$gimli..endianity..LittleEndian$GT$$GT$$GT$$GT$17h860ae9c39ec7865aE', symObjAddr: 0x255E0, symBinAddr: 0x23640, symSize: 0xF4 }
  - { offset: 0x9FFE2, size: 0x8, addend: 0x0, symName: '__ZN4core3ptr152drop_in_place$LT$core..result..Result$LT$$RF$std..thread..thread..Thread$C$$LP$$RF$std..thread..thread..Thread$C$std..thread..thread..Thread$RP$$GT$$GT$17h50bda3150702fe22E', symObjAddr: 0x256D4, symBinAddr: 0x23734, symSize: 0x28 }
  - { offset: 0xA00D5, size: 0x8, addend: 0x0, symName: '__ZN4core3ptr154drop_in_place$LT$alloc..boxed..Box$LT$dyn$u20$core..ops..function..FnOnce$LT$$LP$$RP$$GT$$u2b$Output$u20$$u3d$$u20$$LP$$RP$$u2b$core..marker..Send$GT$$GT$17haa44d8e2d1b235e6E', symObjAddr: 0x256FC, symBinAddr: 0x2375C, symSize: 0x78 }
  - { offset: 0xA0222, size: 0x8, addend: 0x0, symName: '__ZN4core3ptr156drop_in_place$LT$alloc..boxed..Box$LT$$u5b$core..option..Option$LT$core..option..Option$LT$std..backtrace_rs..symbolize..gimli..Mapping$GT$$GT$$u5d$$GT$$GT$17hf497ea1725e40977E', symObjAddr: 0x25774, symBinAddr: 0x237D4, symSize: 0xF8 }
  - { offset: 0xA03A1, size: 0x8, addend: 0x0, symName: '__ZN4core3ptr159drop_in_place$LT$alloc..sync..ArcInner$LT$gimli..read..dwarf..Dwarf$LT$gimli..read..endian_slice..EndianSlice$LT$gimli..endianity..LittleEndian$GT$$GT$$GT$$GT$17h8d31cf90ed6c40e7E', symObjAddr: 0x258E8, symBinAddr: 0x238CC, symSize: 0x5C }
  - { offset: 0xA0462, size: 0x8, addend: 0x0, symName: '__ZN4core3ptr161drop_in_place$LT$alloc..vec..Vec$LT$addr2line..function..LazyFunction$LT$gimli..read..endian_slice..EndianSlice$LT$gimli..endianity..LittleEndian$GT$$GT$$GT$$GT$17hd6e134544d630cd7E', symObjAddr: 0x25944, symBinAddr: 0x23928, symSize: 0xAC }
  - { offset: 0xA071E, size: 0x8, addend: 0x0, symName: '__ZN4core3ptr173drop_in_place$LT$alloc..boxed..Box$LT$$u5b$addr2line..function..LazyFunction$LT$gimli..read..endian_slice..EndianSlice$LT$gimli..endianity..LittleEndian$GT$$GT$$u5d$$GT$$GT$17hc5210d9f07fdafb2E', symObjAddr: 0x25A9C, symBinAddr: 0x239D4, symSize: 0x9C }
  - { offset: 0xA0735, size: 0x8, addend: 0x0, symName: '__ZN4core3ptr173drop_in_place$LT$alloc..boxed..Box$LT$$u5b$addr2line..function..LazyFunction$LT$gimli..read..endian_slice..EndianSlice$LT$gimli..endianity..LittleEndian$GT$$GT$$u5d$$GT$$GT$17hc5210d9f07fdafb2E', symObjAddr: 0x25A9C, symBinAddr: 0x239D4, symSize: 0x9C }
  - { offset: 0xA098A, size: 0x8, addend: 0x0, symName: '__ZN4core3ptr181drop_in_place$LT$core..option..Option$LT$gimli..read..line..IncompleteLineProgram$LT$gimli..read..endian_slice..EndianSlice$LT$gimli..endianity..LittleEndian$GT$$C$usize$GT$$GT$$GT$17h352b45f70877c5a7E', symObjAddr: 0x25BA8, symBinAddr: 0x23A70, symSize: 0x98 }
  - { offset: 0xA0C8F, size: 0x8, addend: 0x0, symName: '__ZN4core3ptr181drop_in_place$LT$core..result..Result$LT$addr2line..frame..FrameIter$LT$gimli..read..endian_slice..EndianSlice$LT$gimli..endianity..LittleEndian$GT$$GT$$C$gimli..read..Error$GT$$GT$17ha77277414e81630dE', symObjAddr: 0x25C40, symBinAddr: 0x23B08, symSize: 0x34 }
  - { offset: 0xA0DF5, size: 0x8, addend: 0x0, symName: '__ZN4core3ptr184drop_in_place$LT$core..result..Result$LT$addr2line..function..Functions$LT$gimli..read..endian_slice..EndianSlice$LT$gimli..endianity..LittleEndian$GT$$GT$$C$gimli..read..Error$GT$$GT$17hbc00da9635afbf80E', symObjAddr: 0x25C74, symBinAddr: 0x23B3C, symSize: 0xD8 }
  - { offset: 0xA1158, size: 0x8, addend: 0x0, symName: '__ZN4core3ptr231drop_in_place$LT$core..result..Result$LT$core..option..Option$LT$alloc..boxed..Box$LT$addr2line..unit..DwoUnit$LT$gimli..read..endian_slice..EndianSlice$LT$gimli..endianity..LittleEndian$GT$$GT$$GT$$GT$$C$gimli..read..Error$GT$$GT$17hcd0e8ef49a887a43E', symObjAddr: 0x25E0C, symBinAddr: 0x23C14, symSize: 0xD4 }
  - { offset: 0xA1379, size: 0x8, addend: 0x0, symName: '__ZN4core3ptr238drop_in_place$LT$alloc..boxed..convert..$LT$impl$u20$core..convert..From$LT$alloc..string..String$GT$$u20$for$u20$alloc..boxed..Box$LT$dyn$u20$core..error..Error$u2b$core..marker..Send$u2b$core..marker..Sync$GT$$GT$..from..StringError$GT$17hbdb0d3d6e5a14b7dE', symObjAddr: 0x25EE0, symBinAddr: 0x23CE8, symSize: 0x18 }
  - { offset: 0xA1390, size: 0x8, addend: 0x0, symName: '__ZN4core3ptr238drop_in_place$LT$alloc..boxed..convert..$LT$impl$u20$core..convert..From$LT$alloc..string..String$GT$$u20$for$u20$alloc..boxed..Box$LT$dyn$u20$core..error..Error$u2b$core..marker..Send$u2b$core..marker..Sync$GT$$GT$..from..StringError$GT$17hbdb0d3d6e5a14b7dE', symObjAddr: 0x25EE0, symBinAddr: 0x23CE8, symSize: 0x18 }
  - { offset: 0xA13A5, size: 0x8, addend: 0x0, symName: '__ZN4core3ptr238drop_in_place$LT$alloc..boxed..convert..$LT$impl$u20$core..convert..From$LT$alloc..string..String$GT$$u20$for$u20$alloc..boxed..Box$LT$dyn$u20$core..error..Error$u2b$core..marker..Send$u2b$core..marker..Sync$GT$$GT$..from..StringError$GT$17hbdb0d3d6e5a14b7dE', symObjAddr: 0x25EE0, symBinAddr: 0x23CE8, symSize: 0x18 }
  - { offset: 0xA144E, size: 0x8, addend: 0x0, symName: '__ZN4core3ptr275drop_in_place$LT$gimli..read..line..LineRows$LT$gimli..read..endian_slice..EndianSlice$LT$gimli..endianity..LittleEndian$GT$$C$gimli..read..line..IncompleteLineProgram$LT$gimli..read..endian_slice..EndianSlice$LT$gimli..endianity..LittleEndian$GT$$C$usize$GT$$C$usize$GT$$GT$17h1d03e883a17d383bE', symObjAddr: 0x25F3C, symBinAddr: 0x23D00, symSize: 0x8C }
  - { offset: 0xA176D, size: 0x8, addend: 0x0, symName: '__ZN4core3ptr280drop_in_place$LT$$LT$alloc..collections..btree..map..IntoIter$LT$K$C$V$C$A$GT$$u20$as$u20$core..ops..drop..Drop$GT$..drop..DropGuard$LT$u64$C$core..result..Result$LT$alloc..sync..Arc$LT$gimli..read..abbrev..Abbreviations$GT$$C$gimli..read..Error$GT$$C$alloc..alloc..Global$GT$$GT$17ha970c8e3d78077b9E', symObjAddr: 0x25FC8, symBinAddr: 0x23D8C, symSize: 0x84 }
  - { offset: 0xA18DC, size: 0x8, addend: 0x0, symName: '__ZN4core3ptr284drop_in_place$LT$core..result..Result$LT$$RF$core..result..Result$LT$addr2line..line..Lines$C$gimli..read..Error$GT$$C$$LP$$RF$core..result..Result$LT$addr2line..line..Lines$C$gimli..read..Error$GT$$C$core..result..Result$LT$addr2line..line..Lines$C$gimli..read..Error$GT$$RP$$GT$$GT$17h8586ac29c68f6f8dE', symObjAddr: 0x2604C, symBinAddr: 0x23E10, symSize: 0x10 }
  - { offset: 0xA190D, size: 0x8, addend: 0x0, symName: '__ZN4core3ptr42drop_in_place$LT$alloc..string..String$GT$17h7177bc67a19c7dd1E', symObjAddr: 0x261F0, symBinAddr: 0x23E20, symSize: 0x18 }
  - { offset: 0xA1924, size: 0x8, addend: 0x0, symName: '__ZN4core3ptr42drop_in_place$LT$alloc..string..String$GT$17h7177bc67a19c7dd1E', symObjAddr: 0x261F0, symBinAddr: 0x23E20, symSize: 0x18 }
  - { offset: 0xA19CC, size: 0x8, addend: 0x0, symName: '__ZN4core3ptr42drop_in_place$LT$std..io..error..Error$GT$17h2a581fa124b9c39dE', symObjAddr: 0x26208, symBinAddr: 0x23E38, symSize: 0xAC }
  - { offset: 0xA1C5B, size: 0x8, addend: 0x0, symName: '__ZN4core3ptr44drop_in_place$LT$object..read..ObjectMap$GT$17h6dd5dff8e4fa51b9E', symObjAddr: 0x262B4, symBinAddr: 0x23EE4, symSize: 0x58 }
  - { offset: 0xA1DE0, size: 0x8, addend: 0x0, symName: '__ZN4core3ptr46drop_in_place$LT$alloc..vec..Vec$LT$u8$GT$$GT$17h647fb034979cf8beE', symObjAddr: 0x263CC, symBinAddr: 0x23F3C, symSize: 0x18 }
  - { offset: 0xA1E89, size: 0x8, addend: 0x0, symName: '__ZN4core3ptr46drop_in_place$LT$std..io..stdio..StdinLock$GT$17h1d4359ea8cab8860E', symObjAddr: 0x263E4, symBinAddr: 0x23F54, symSize: 0x54 }
  - { offset: 0xA1EA0, size: 0x8, addend: 0x0, symName: '__ZN4core3ptr46drop_in_place$LT$std..io..stdio..StdinLock$GT$17h1d4359ea8cab8860E', symObjAddr: 0x263E4, symBinAddr: 0x23F54, symSize: 0x54 }
  - { offset: 0xA1EB5, size: 0x8, addend: 0x0, symName: '__ZN4core3ptr46drop_in_place$LT$std..io..stdio..StdinLock$GT$17h1d4359ea8cab8860E', symObjAddr: 0x263E4, symBinAddr: 0x23F54, symSize: 0x54 }
  - { offset: 0xA1F98, size: 0x8, addend: 0x0, symName: '__ZN4core3ptr48drop_in_place$LT$alloc..ffi..c_str..NulError$GT$17h700e8646eea93603E', symObjAddr: 0x2651C, symBinAddr: 0x23FA8, symSize: 0x18 }
  - { offset: 0xA1FAF, size: 0x8, addend: 0x0, symName: '__ZN4core3ptr48drop_in_place$LT$alloc..ffi..c_str..NulError$GT$17h700e8646eea93603E', symObjAddr: 0x2651C, symBinAddr: 0x23FA8, symSize: 0x18 }
  - { offset: 0xA2065, size: 0x8, addend: 0x0, symName: '__ZN4core3ptr557drop_in_place$LT$core..result..Result$LT$$RF$core..result..Result$LT$addr2line..function..Function$LT$gimli..read..endian_slice..EndianSlice$LT$gimli..endianity..LittleEndian$GT$$GT$$C$gimli..read..Error$GT$$C$$LP$$RF$core..result..Result$LT$addr2line..function..Function$LT$gimli..read..endian_slice..EndianSlice$LT$gimli..endianity..LittleEndian$GT$$GT$$C$gimli..read..Error$GT$$C$core..result..Result$LT$addr2line..function..Function$LT$gimli..read..endian_slice..EndianSlice$LT$gimli..endianity..LittleEndian$GT$$GT$$C$gimli..read..Error$GT$$RP$$GT$$GT$17hbf4e721ce4c33644E', symObjAddr: 0x26800, symBinAddr: 0x23FC0, symSize: 0x64 }
  - { offset: 0xA229A, size: 0x8, addend: 0x0, symName: '__ZN4core3ptr55drop_in_place$LT$gimli..read..abbrev..Abbreviations$GT$17h8ab6045e1a32d6e5E', symObjAddr: 0x26864, symBinAddr: 0x24024, symSize: 0x118 }
  - { offset: 0xA267D, size: 0x8, addend: 0x0, symName: '__ZN4core3ptr560drop_in_place$LT$core..result..Result$LT$$RF$core..result..Result$LT$addr2line..function..Functions$LT$gimli..read..endian_slice..EndianSlice$LT$gimli..endianity..LittleEndian$GT$$GT$$C$gimli..read..Error$GT$$C$$LP$$RF$core..result..Result$LT$addr2line..function..Functions$LT$gimli..read..endian_slice..EndianSlice$LT$gimli..endianity..LittleEndian$GT$$GT$$C$gimli..read..Error$GT$$C$core..result..Result$LT$addr2line..function..Functions$LT$gimli..read..endian_slice..EndianSlice$LT$gimli..endianity..LittleEndian$GT$$GT$$C$gimli..read..Error$GT$$RP$$GT$$GT$17hec042495284d0bbcE', symObjAddr: 0x26A00, symBinAddr: 0x2413C, symSize: 0x10 }
  - { offset: 0xA26D5, size: 0x8, addend: 0x0, symName: '__ZN4core3ptr60drop_in_place$LT$gimli..read..abbrev..AbbreviationsCache$GT$17ha8109f95237a3308E', symObjAddr: 0x26A10, symBinAddr: 0x2414C, symSize: 0xCC }
  - { offset: 0xA287F, size: 0x8, addend: 0x0, symName: '__ZN4core3ptr61drop_in_place$LT$std..panicking..resume_unwind..RewrapBox$GT$17hd7cb86007472ee4bE', symObjAddr: 0x26ADC, symBinAddr: 0x24218, symSize: 0x6C }
  - { offset: 0xA29CD, size: 0x8, addend: 0x0, symName: '__ZN4core3ptr64drop_in_place$LT$std..sys..pal..unix..sync..mutex..AttrGuard$GT$17ha4c14460210b2525E', symObjAddr: 0x26B48, symBinAddr: 0x24284, symSize: 0x44 }
  - { offset: 0xA2A09, size: 0x8, addend: 0x0, symName: '__ZN4core3ptr65drop_in_place$LT$alloc..vec..Vec$LT$alloc..string..String$GT$$GT$17h7ebbe7dfd7bc1ccbE', symObjAddr: 0x26C04, symBinAddr: 0x242C8, symSize: 0x80 }
  - { offset: 0xA2BD1, size: 0x8, addend: 0x0, symName: '__ZN4core3ptr65drop_in_place$LT$std..backtrace_rs..symbolize..gimli..Context$GT$17haab8e1fda23d5fa5E', symObjAddr: 0x26C84, symBinAddr: 0x24348, symSize: 0xE8 }
  - { offset: 0xA2EE4, size: 0x8, addend: 0x0, symName: '__ZN4core3ptr66drop_in_place$LT$std..backtrace_rs..backtrace..libunwind..Bomb$GT$17h6f5f39747d960df4E', symObjAddr: 0x26D70, symBinAddr: 0x24430, symSize: 0x28 }
  - { offset: 0xA2F1B, size: 0x8, addend: 0x0, symName: '__ZN4core3ptr701drop_in_place$LT$core..result..Result$LT$$RF$core..result..Result$LT$core..option..Option$LT$alloc..boxed..Box$LT$addr2line..unit..DwoUnit$LT$gimli..read..endian_slice..EndianSlice$LT$gimli..endianity..LittleEndian$GT$$GT$$GT$$GT$$C$gimli..read..Error$GT$$C$$LP$$RF$core..result..Result$LT$core..option..Option$LT$alloc..boxed..Box$LT$addr2line..unit..DwoUnit$LT$gimli..read..endian_slice..EndianSlice$LT$gimli..endianity..LittleEndian$GT$$GT$$GT$$GT$$C$gimli..read..Error$GT$$C$core..result..Result$LT$core..option..Option$LT$alloc..boxed..Box$LT$addr2line..unit..DwoUnit$LT$gimli..read..endian_slice..EndianSlice$LT$gimli..endianity..LittleEndian$GT$$GT$$GT$$GT$$C$gimli..read..Error$GT$$RP$$GT$$GT$17h88daae4c53ffefdaE', symObjAddr: 0x26D98, symBinAddr: 0x24458, symSize: 0x14 }
  - { offset: 0xA2FB4, size: 0x8, addend: 0x0, symName: '__ZN4core3ptr70drop_in_place$LT$std..backtrace_rs..symbolize..gimli..stash..Stash$GT$17h2a2fe413fd97d962E', symObjAddr: 0x26E2C, symBinAddr: 0x2446C, symSize: 0xB8 }
  - { offset: 0xA32D9, size: 0x8, addend: 0x0, symName: '__ZN4core3ptr71drop_in_place$LT$std..backtrace_rs..symbolize..gimli..macho..Object$GT$17hff274e6b6839ff9fE', symObjAddr: 0x26EE4, symBinAddr: 0x24524, symSize: 0xD8 }
  - { offset: 0xA3675, size: 0x8, addend: 0x0, symName: '__ZN4core3ptr71drop_in_place$LT$std..panicking..panic_handler..FormatStringPayload$GT$17h54812e3768a5adedE', symObjAddr: 0x26FBC, symBinAddr: 0x245FC, symSize: 0x1C }
  - { offset: 0xA375B, size: 0x8, addend: 0x0, symName: '__ZN4core3ptr72drop_in_place$LT$core..option..Option$LT$object..read..ObjectMap$GT$$GT$17h77b373644c79eec6E', symObjAddr: 0x26FD8, symBinAddr: 0x24618, symSize: 0x64 }
  - { offset: 0xA3929, size: 0x8, addend: 0x0, symName: '__ZN4core3ptr73drop_in_place$LT$alloc..vec..Vec$LT$addr2line..line..LineSequence$GT$$GT$17ha16223ace49baf81E', symObjAddr: 0x2703C, symBinAddr: 0x2467C, symSize: 0x84 }
  - { offset: 0xA3AD6, size: 0x8, addend: 0x0, symName: '__ZN4core3ptr77drop_in_place$LT$alloc..boxed..Box$LT$$u5b$alloc..string..String$u5d$$GT$$GT$17h5b1f65b91ef5f48dE', symObjAddr: 0x270F8, symBinAddr: 0x24700, symSize: 0x70 }
  - { offset: 0xA3AED, size: 0x8, addend: 0x0, symName: '__ZN4core3ptr77drop_in_place$LT$alloc..boxed..Box$LT$$u5b$alloc..string..String$u5d$$GT$$GT$17h5b1f65b91ef5f48dE', symObjAddr: 0x270F8, symBinAddr: 0x24700, symSize: 0x70 }
  - { offset: 0xA3C41, size: 0x8, addend: 0x0, symName: '__ZN4core3ptr79drop_in_place$LT$std..sync..poison..rwlock..RwLockReadGuard$LT$$LP$$RP$$GT$$GT$17hd1db8e4b007d81c2E', symObjAddr: 0x27198, symBinAddr: 0x24770, symSize: 0x58 }
  - { offset: 0xA3CDD, size: 0x8, addend: 0x0, symName: '__ZN4core3ptr81drop_in_place$LT$core..result..Result$LT$$LP$$RP$$C$std..io..error..Error$GT$$GT$17h07e7a33e3e0db561E', symObjAddr: 0x2729C, symBinAddr: 0x247C8, symSize: 0x10 }
  - { offset: 0xA3D0B, size: 0x8, addend: 0x0, symName: '__ZN4core3ptr82drop_in_place$LT$alloc..sync..ArcInner$LT$std..sys..fs..unix..InnerReadDir$GT$$GT$17hdb6d8f86ff00af8aE', symObjAddr: 0x27380, symBinAddr: 0x247D8, symSize: 0x60 }
  - { offset: 0xA3F2B, size: 0x8, addend: 0x0, symName: '__ZN4core3ptr92drop_in_place$LT$core..result..Result$LT$addr2line..line..Lines$C$gimli..read..Error$GT$$GT$17h918b544443b7be6fE', symObjAddr: 0x27514, symBinAddr: 0x24838, symSize: 0xE4 }
  - { offset: 0xA421C, size: 0x8, addend: 0x0, symName: '__ZN4core3ptr93drop_in_place$LT$core..option..Option$LT$std..backtrace_rs..symbolize..gimli..Mapping$GT$$GT$17h660820b1b79ec8a2E', symObjAddr: 0x275F8, symBinAddr: 0x2491C, symSize: 0x6C }
  - { offset: 0xA6289, size: 0x8, addend: 0x0, symName: __ZN4core5slice4sort8unstable7ipnsort17h0a0512af13cc06a6E, symObjAddr: 0x31018, symBinAddr: 0x2B4F0, symSize: 0xEC }
  - { offset: 0xA63CD, size: 0x8, addend: 0x0, symName: __ZN4core5slice4sort8unstable7ipnsort17h502fce36f743139eE, symObjAddr: 0x31104, symBinAddr: 0x2B5DC, symSize: 0x1A8 }
  - { offset: 0xA66AA, size: 0x8, addend: 0x0, symName: __ZN4core5slice4sort8unstable8heapsort8heapsort17h10b1620aeb7d2d9bE, symObjAddr: 0x312AC, symBinAddr: 0x2B784, symSize: 0x100 }
  - { offset: 0xA68A6, size: 0x8, addend: 0x0, symName: __ZN4core5slice4sort8unstable8heapsort8heapsort17he327f90913754eb5E, symObjAddr: 0x313AC, symBinAddr: 0x2B884, symSize: 0x160 }
  - { offset: 0xA6C4A, size: 0x8, addend: 0x0, symName: __ZN4core5slice4sort8unstable9quicksort9quicksort17h324c95ad922d2016E, symObjAddr: 0x3150C, symBinAddr: 0x2B9E4, symSize: 0x3D8 }
  - { offset: 0xA73EC, size: 0x8, addend: 0x0, symName: __ZN4core5slice4sort8unstable9quicksort9quicksort17h70a0c9f3576c05b0E, symObjAddr: 0x318E4, symBinAddr: 0x2BDBC, symSize: 0x500 }
  - { offset: 0xA7EAD, size: 0x8, addend: 0x0, symName: __ZN4core5slice4sort6stable14driftsort_main17h7906cf8a57880c64E, symObjAddr: 0x2BD38, symBinAddr: 0x26210, symSize: 0x124 }
  - { offset: 0xA8228, size: 0x8, addend: 0x0, symName: __ZN4core5slice4sort6stable14driftsort_main17h9645c7edece7dde6E, symObjAddr: 0x2BE5C, symBinAddr: 0x26334, symSize: 0x124 }
  - { offset: 0xA85A3, size: 0x8, addend: 0x0, symName: __ZN4core5slice4sort6stable14driftsort_main17ha8f1205c8a1b0be1E, symObjAddr: 0x2BF80, symBinAddr: 0x26458, symSize: 0x150 }
  - { offset: 0xA893E, size: 0x8, addend: 0x0, symName: __ZN4core5slice4sort6stable14driftsort_main17hab4f063fa19951e9E, symObjAddr: 0x2C0D0, symBinAddr: 0x265A8, symSize: 0x128 }
  - { offset: 0xA8BE1, size: 0x8, addend: 0x0, symName: __ZN4core5slice4sort6stable14driftsort_main17hde2353fe72c418b7E, symObjAddr: 0x2C1F8, symBinAddr: 0x266D0, symSize: 0x150 }
  - { offset: 0xA8F7C, size: 0x8, addend: 0x0, symName: __ZN4core5slice4sort6stable14driftsort_main17hf1c1a8a8ac2b901fE, symObjAddr: 0x2C348, symBinAddr: 0x26820, symSize: 0x124 }
  - { offset: 0xA950B, size: 0x8, addend: 0x0, symName: __ZN4core5slice4sort6stable5drift4sort17h34883c2ac2f5271dE, symObjAddr: 0x2C46C, symBinAddr: 0x26944, symSize: 0x4F4 }
  - { offset: 0xA9BB6, size: 0x8, addend: 0x0, symName: __ZN4core5slice4sort6stable5drift4sort17h499aec6506322728E, symObjAddr: 0x2C960, symBinAddr: 0x26E38, symSize: 0x4D8 }
  - { offset: 0xAA1CD, size: 0x8, addend: 0x0, symName: __ZN4core5slice4sort6stable5drift4sort17h501954fcd897ef96E, symObjAddr: 0x2CE38, symBinAddr: 0x27310, symSize: 0x4F4 }
  - { offset: 0xAA878, size: 0x8, addend: 0x0, symName: __ZN4core5slice4sort6stable5drift4sort17h5c0bd4c0de4b3698E, symObjAddr: 0x2D32C, symBinAddr: 0x27804, symSize: 0x538 }
  - { offset: 0xAAF0D, size: 0x8, addend: 0x0, symName: __ZN4core5slice4sort6stable5drift4sort17ha0570459d19483b1E, symObjAddr: 0x2D864, symBinAddr: 0x27D3C, symSize: 0x540 }
  - { offset: 0xAB5CE, size: 0x8, addend: 0x0, symName: __ZN4core5slice4sort6stable5drift4sort17hbba22eb7cb8243f1E, symObjAddr: 0x2DDA4, symBinAddr: 0x2827C, symSize: 0x5EC }
  - { offset: 0xABEE0, size: 0x8, addend: 0x0, symName: __ZN4core5slice4sort6stable9quicksort9quicksort17h1609a8299efffbefE, symObjAddr: 0x2E390, symBinAddr: 0x28868, symSize: 0x7FC }
  - { offset: 0xACEAB, size: 0x8, addend: 0x0, symName: __ZN4core5slice4sort6stable9quicksort9quicksort17h4e2b32995f15cf78E, symObjAddr: 0x2EB8C, symBinAddr: 0x29064, symSize: 0x6BC }
  - { offset: 0xAD993, size: 0x8, addend: 0x0, symName: __ZN4core5slice4sort6stable9quicksort9quicksort17h77aa5dbef63ca362E, symObjAddr: 0x2F248, symBinAddr: 0x29720, symSize: 0x6B4 }
  - { offset: 0xAE47B, size: 0x8, addend: 0x0, symName: __ZN4core5slice4sort6stable9quicksort9quicksort17h79b6c465ad58398bE, symObjAddr: 0x2F8FC, symBinAddr: 0x29DD4, symSize: 0x720 }
  - { offset: 0xAEBEB, size: 0x8, addend: 0x0, symName: __ZN4core5slice4sort6stable9quicksort9quicksort17h93a9f06c303edb50E, symObjAddr: 0x3001C, symBinAddr: 0x2A4F4, symSize: 0x810 }
  - { offset: 0xAF7E4, size: 0x8, addend: 0x0, symName: __ZN4core5slice4sort6stable9quicksort9quicksort17hc0a2a721e5d41753E, symObjAddr: 0x3082C, symBinAddr: 0x2AD04, symSize: 0x7EC }
  - { offset: 0xB0489, size: 0x8, addend: 0x0, symName: __ZN4core5slice4sort6shared9smallsort12sort4_stable17h1a9ecce6dce46fa9E, symObjAddr: 0x2AC0C, symBinAddr: 0x250E4, symSize: 0x180 }
  - { offset: 0xB0873, size: 0x8, addend: 0x0, symName: __ZN4core5slice4sort6shared9smallsort12sort4_stable17h22f354dfc4360d8fE, symObjAddr: 0x2AD8C, symBinAddr: 0x25264, symSize: 0x194 }
  - { offset: 0xB0A54, size: 0x8, addend: 0x0, symName: __ZN4core5slice4sort6shared9smallsort12sort8_stable17h4f8efffcd77ba938E, symObjAddr: 0x2AF20, symBinAddr: 0x253F8, symSize: 0x2B8 }
  - { offset: 0xB0F38, size: 0x8, addend: 0x0, symName: __ZN4core5slice4sort6shared9smallsort18small_sort_general17h98f61aba69ee5728E, symObjAddr: 0x2B1D8, symBinAddr: 0x256B0, symSize: 0x3E8 }
  - { offset: 0xB14A1, size: 0x8, addend: 0x0, symName: __ZN4core5slice4sort6shared9smallsort18small_sort_general17hbef35dbc5bb6f4a6E, symObjAddr: 0x2B5C0, symBinAddr: 0x25A98, symSize: 0x490 }
  - { offset: 0xB1B8B, size: 0x8, addend: 0x0, symName: __ZN4core5slice4sort6shared9smallsort25insertion_sort_shift_left17h06f7e0bf7559ff7dE, symObjAddr: 0x2BA50, symBinAddr: 0x25F28, symSize: 0xA8 }
  - { offset: 0xB1C55, size: 0x8, addend: 0x0, symName: __ZN4core5slice4sort6shared9smallsort25insertion_sort_shift_left17h08026f5eee1d8b5bE, symObjAddr: 0x2BAF8, symBinAddr: 0x25FD0, symSize: 0xF4 }
  - { offset: 0xB1E1A, size: 0x8, addend: 0x0, symName: __ZN4core5slice4sort6shared9smallsort25insertion_sort_shift_left17h77c6665666d5c375E, symObjAddr: 0x2BBEC, symBinAddr: 0x260C4, symSize: 0xB8 }
  - { offset: 0xB1F47, size: 0x8, addend: 0x0, symName: __ZN4core5slice4sort6shared9smallsort25insertion_sort_shift_left17hdfd28577810a2608E, symObjAddr: 0x2BCA4, symBinAddr: 0x2617C, symSize: 0x94 }
  - { offset: 0xB21EE, size: 0x8, addend: 0x0, symName: __ZN4core5slice4sort6shared5pivot11median3_rec17h238b529999c6d492E, symObjAddr: 0x2A4E8, symBinAddr: 0x249C0, symSize: 0xCC }
  - { offset: 0xB22F9, size: 0x8, addend: 0x0, symName: __ZN4core5slice4sort6shared5pivot11median3_rec17h3be155342c6c44ddE, symObjAddr: 0x2A5B4, symBinAddr: 0x24A8C, symSize: 0x134 }
  - { offset: 0xB2534, size: 0x8, addend: 0x0, symName: __ZN4core5slice4sort6shared5pivot11median3_rec17h3e4d6346d1d119a2E, symObjAddr: 0x2A6E8, symBinAddr: 0x24BC0, symSize: 0xD0 }
  - { offset: 0xB263F, size: 0x8, addend: 0x0, symName: __ZN4core5slice4sort6shared5pivot11median3_rec17h54949ce01317ee94E, symObjAddr: 0x2A7B8, symBinAddr: 0x24C90, symSize: 0xCC }
  - { offset: 0xB274A, size: 0x8, addend: 0x0, symName: __ZN4core5slice4sort6shared5pivot11median3_rec17h7aefd803b1dfacb5E, symObjAddr: 0x2A884, symBinAddr: 0x24D5C, symSize: 0xD0 }
  - { offset: 0xB2857, size: 0x8, addend: 0x0, symName: __ZN4core5slice4sort6shared5pivot11median3_rec17h7fcfe1b62eab07fbE, symObjAddr: 0x2A954, symBinAddr: 0x24E2C, symSize: 0xD0 }
  - { offset: 0xB2962, size: 0x8, addend: 0x0, symName: __ZN4core5slice4sort6shared5pivot11median3_rec17h9640e1954690b4acE, symObjAddr: 0x2AA24, symBinAddr: 0x24EFC, symSize: 0x11C }
  - { offset: 0xB2A72, size: 0x8, addend: 0x0, symName: __ZN4core5slice4sort6shared5pivot11median3_rec17heb9420491d1f67d9E, symObjAddr: 0x2AB40, symBinAddr: 0x25018, symSize: 0xCC }
  - { offset: 0xB32DC, size: 0x8, addend: 0x0, symName: __ZN4core5panic12PanicPayload6as_str17h320c81ceb0f82bebE, symObjAddr: 0x2A4E0, symBinAddr: 0x249B8, symSize: 0x8 }
  - { offset: 0xB48D3, size: 0x8, addend: 0x0, symName: '__ZN42_$LT$$RF$T$u20$as$u20$core..fmt..Debug$GT$3fmt17h040513171ae6591eE', symObjAddr: 0x22E88, symBinAddr: 0x22810, symSize: 0x1C }
  - { offset: 0xB491B, size: 0x8, addend: 0x0, symName: '__ZN42_$LT$$RF$T$u20$as$u20$core..fmt..Debug$GT$3fmt17h1b291d698eb12ba7E', symObjAddr: 0x22EAC, symBinAddr: 0x2282C, symSize: 0x74 }
  - { offset: 0xB4A32, size: 0x8, addend: 0x0, symName: '__ZN42_$LT$$RF$T$u20$as$u20$core..fmt..Debug$GT$3fmt17h47eac39c0950c916E', symObjAddr: 0x23070, symBinAddr: 0x228A0, symSize: 0x10 }
  - { offset: 0xB4A46, size: 0x8, addend: 0x0, symName: '__ZN42_$LT$$RF$T$u20$as$u20$core..fmt..Debug$GT$3fmt17h6a11d8c595c93c67E', symObjAddr: 0x231F4, symBinAddr: 0x228B0, symSize: 0x10 }
  - { offset: 0xB4A77, size: 0x8, addend: 0x0, symName: '__ZN42_$LT$$RF$T$u20$as$u20$core..fmt..Debug$GT$3fmt17hb3b87348d2a2e08eE', symObjAddr: 0x233C4, symBinAddr: 0x228C0, symSize: 0x1C }
  - { offset: 0xB4B0C, size: 0x8, addend: 0x0, symName: '__ZN4core3fmt3num50_$LT$impl$u20$core..fmt..Debug$u20$for$u20$i32$GT$3fmt17h8203a6e54d979cdaE', symObjAddr: 0x23DC8, symBinAddr: 0x2294C, symSize: 0x18 }
  - { offset: 0xB4B24, size: 0x8, addend: 0x0, symName: '__ZN4core3fmt3num50_$LT$impl$u20$core..fmt..Debug$u20$for$u20$i32$GT$3fmt17h8203a6e54d979cdaE', symObjAddr: 0x23DC8, symBinAddr: 0x2294C, symSize: 0x18 }
  - { offset: 0xB4B3D, size: 0x8, addend: 0x0, symName: '__ZN4core3fmt3num52_$LT$impl$u20$core..fmt..Debug$u20$for$u20$usize$GT$3fmt17h92cb54035fd7d9bcE', symObjAddr: 0x23E28, symBinAddr: 0x22964, symSize: 0x18 }
  - { offset: 0xB4B55, size: 0x8, addend: 0x0, symName: '__ZN4core3fmt3num52_$LT$impl$u20$core..fmt..Debug$u20$for$u20$usize$GT$3fmt17h92cb54035fd7d9bcE', symObjAddr: 0x23E28, symBinAddr: 0x22964, symSize: 0x18 }
  - { offset: 0xB4B90, size: 0x8, addend: 0x0, symName: '__ZN44_$LT$$RF$T$u20$as$u20$core..fmt..Display$GT$3fmt17h5556f0297f2fd1caE', symObjAddr: 0x23A10, symBinAddr: 0x228DC, symSize: 0x60 }
  - { offset: 0xB4C07, size: 0x8, addend: 0x0, symName: '__ZN44_$LT$$RF$T$u20$as$u20$core..fmt..Display$GT$3fmt17hae559ce28e13c65cE', symObjAddr: 0x23A70, symBinAddr: 0x2293C, symSize: 0x10 }
  - { offset: 0xB4C42, size: 0x8, addend: 0x0, symName: __ZN4core3fmt5Write10write_char17h39a39a5dc3c4fa4bE, symObjAddr: 0x23E40, symBinAddr: 0x2297C, symSize: 0x128 }
  - { offset: 0xB4CBD, size: 0x8, addend: 0x0, symName: __ZN4core3fmt5Write10write_char17h3cdf15236ee535d2E, symObjAddr: 0x23F68, symBinAddr: 0x22AA4, symSize: 0x110 }
  - { offset: 0xB4E71, size: 0x8, addend: 0x0, symName: __ZN4core3fmt5Write10write_char17ha2efda81adfce684E, symObjAddr: 0x241A0, symBinAddr: 0x22BB4, symSize: 0x168 }
  - { offset: 0xB4FBF, size: 0x8, addend: 0x0, symName: __ZN4core3fmt5Write10write_char17hd8f5ba739a16d1beE, symObjAddr: 0x24308, symBinAddr: 0x22D1C, symSize: 0x138 }
  - { offset: 0xB519B, size: 0x8, addend: 0x0, symName: __ZN4core3fmt5Write9write_fmt17h2c8182b954462204E, symObjAddr: 0x245A8, symBinAddr: 0x22E54, symSize: 0x14 }
  - { offset: 0xB51CA, size: 0x8, addend: 0x0, symName: __ZN4core3fmt5Write9write_fmt17h5dce252a7efc3c1dE, symObjAddr: 0x245BC, symBinAddr: 0x22E68, symSize: 0x14 }
  - { offset: 0xB51F9, size: 0x8, addend: 0x0, symName: __ZN4core3fmt5Write9write_fmt17h798233193b14ab69E, symObjAddr: 0x245E4, symBinAddr: 0x22E7C, symSize: 0x14 }
  - { offset: 0xB5228, size: 0x8, addend: 0x0, symName: __ZN4core3fmt5Write9write_fmt17h7ad11c4403f9d11eE, symObjAddr: 0x245F8, symBinAddr: 0x22E90, symSize: 0x14 }
  - { offset: 0xB5257, size: 0x8, addend: 0x0, symName: __ZN4core3fmt5Write9write_fmt17hb75111b2f2b2ff10E, symObjAddr: 0x24620, symBinAddr: 0x22EA4, symSize: 0x14 }
  - { offset: 0xB52B2, size: 0x8, addend: 0x0, symName: '__ZN50_$LT$$BP$mut$u20$T$u20$as$u20$core..fmt..Debug$GT$3fmt17h6aced92d6477d86aE', symObjAddr: 0x31E94, symBinAddr: 0x2C2BC, symSize: 0x8 }
  - { offset: 0xB52D0, size: 0x8, addend: 0x0, symName: '__ZN50_$LT$$BP$mut$u20$T$u20$as$u20$core..fmt..Debug$GT$3fmt17h6aced92d6477d86aE', symObjAddr: 0x31E94, symBinAddr: 0x2C2BC, symSize: 0x8 }
  - { offset: 0xB52FF, size: 0x8, addend: 0x0, symName: '__ZN52_$LT$$RF$mut$u20$T$u20$as$u20$core..fmt..Display$GT$3fmt17hed655ff61a817db9E', symObjAddr: 0x32460, symBinAddr: 0x2C2C4, symSize: 0x10 }
  - { offset: 0xB537F, size: 0x8, addend: 0x0, symName: '__ZN4core3ops8function6FnOnce40call_once$u7b$$u7b$vtable.shim$u7d$$u7d$17h1bf019ee877ffbe9E', symObjAddr: 0x24930, symBinAddr: 0x22EB8, symSize: 0x4 }
  - { offset: 0xB539C, size: 0x8, addend: 0x0, symName: '__ZN4core3ops8function6FnOnce40call_once$u7b$$u7b$vtable.shim$u7d$$u7d$17h1bf019ee877ffbe9E', symObjAddr: 0x24930, symBinAddr: 0x22EB8, symSize: 0x4 }
  - { offset: 0xB53BA, size: 0x8, addend: 0x0, symName: '__ZN4core3ops8function6FnOnce40call_once$u7b$$u7b$vtable.shim$u7d$$u7d$17h7d092bb5143e405eE', symObjAddr: 0x24B20, symBinAddr: 0x22EBC, symSize: 0x98 }
  - { offset: 0xB552A, size: 0x8, addend: 0x0, symName: '__ZN4core3ops8function6FnOnce40call_once$u7b$$u7b$vtable.shim$u7d$$u7d$17h879ee2ac1920fd87E', symObjAddr: 0x24BB8, symBinAddr: 0x22F54, symSize: 0x4 }
  - { offset: 0xB5547, size: 0x8, addend: 0x0, symName: '__ZN4core3ops8function6FnOnce40call_once$u7b$$u7b$vtable.shim$u7d$$u7d$17h879ee2ac1920fd87E', symObjAddr: 0x24BB8, symBinAddr: 0x22F54, symSize: 0x4 }
  - { offset: 0xB5565, size: 0x8, addend: 0x0, symName: '__ZN4core3ops8function6FnOnce40call_once$u7b$$u7b$vtable.shim$u7d$$u7d$17h91555c7ea8afd78bE', symObjAddr: 0x24BE4, symBinAddr: 0x22F58, symSize: 0xC }
  - { offset: 0xB55B5, size: 0x8, addend: 0x0, symName: '__ZN4core3ops8function6FnOnce40call_once$u7b$$u7b$vtable.shim$u7d$$u7d$17hdee2568c0d8585d3E', symObjAddr: 0x24BF0, symBinAddr: 0x22F64, symSize: 0xC }
  - { offset: 0xB61AF, size: 0x8, addend: 0x0, symName: '__ZN36_$LT$T$u20$as$u20$core..any..Any$GT$7type_id17h6c3a8cfe24881123E', symObjAddr: 0xC94, symBinAddr: 0x18718, symSize: 0x14 }
  - { offset: 0xB61CC, size: 0x8, addend: 0x0, symName: '__ZN36_$LT$T$u20$as$u20$core..any..Any$GT$7type_id17h6c3a8cfe24881123E', symObjAddr: 0xC94, symBinAddr: 0x18718, symSize: 0x14 }
  - { offset: 0xB61DE, size: 0x8, addend: 0x0, symName: '__ZN36_$LT$T$u20$as$u20$core..any..Any$GT$7type_id17hd20e8d5a59f6a25bE', symObjAddr: 0xCA8, symBinAddr: 0x1872C, symSize: 0x14 }
  - { offset: 0xB61FB, size: 0x8, addend: 0x0, symName: '__ZN36_$LT$T$u20$as$u20$core..any..Any$GT$7type_id17hd20e8d5a59f6a25bE', symObjAddr: 0xCA8, symBinAddr: 0x1872C, symSize: 0x14 }
  - { offset: 0xB620D, size: 0x8, addend: 0x0, symName: '__ZN36_$LT$T$u20$as$u20$core..any..Any$GT$7type_id17hd2d96ff10ea5ae27E', symObjAddr: 0xCBC, symBinAddr: 0x18740, symSize: 0x14 }
  - { offset: 0xB622A, size: 0x8, addend: 0x0, symName: '__ZN36_$LT$T$u20$as$u20$core..any..Any$GT$7type_id17hd2d96ff10ea5ae27E', symObjAddr: 0xCBC, symBinAddr: 0x18740, symSize: 0x14 }
  - { offset: 0xB76EC, size: 0x8, addend: 0x0, symName: '__ZN4core4cell4once17OnceCell$LT$T$GT$8try_init17h011e26eef33dcdabE', symObjAddr: 0x2775C, symBinAddr: 0x474EC, symSize: 0x62C }
  - { offset: 0xB83FB, size: 0x8, addend: 0x0, symName: '__ZN4core4cell4once17OnceCell$LT$T$GT$8try_init17h102d334c8beb4b3eE', symObjAddr: 0x27D88, symBinAddr: 0x47B18, symSize: 0xBE4 }
  - { offset: 0xB9F69, size: 0x8, addend: 0x0, symName: '__ZN4core4cell4once17OnceCell$LT$T$GT$8try_init17h106096a90ff76f10E', symObjAddr: 0x2896C, symBinAddr: 0x486FC, symSize: 0x186C }
  - { offset: 0xBDA00, size: 0x8, addend: 0x0, symName: '__ZN4core4cell4once17OnceCell$LT$T$GT$8try_init17h6e531beec0fa4499E', symObjAddr: 0x2A1D8, symBinAddr: 0x49F68, symSize: 0x48 }
  - { offset: 0xBDA1E, size: 0x8, addend: 0x0, symName: '__ZN4core4cell4once17OnceCell$LT$T$GT$8try_init17h6e531beec0fa4499E', symObjAddr: 0x2A1D8, symBinAddr: 0x49F68, symSize: 0x48 }
  - { offset: 0xBDA33, size: 0x8, addend: 0x0, symName: '__ZN4core4cell4once17OnceCell$LT$T$GT$8try_init17h6e531beec0fa4499E', symObjAddr: 0x2A1D8, symBinAddr: 0x49F68, symSize: 0x48 }
  - { offset: 0xBDA47, size: 0x8, addend: 0x0, symName: '__ZN4core4cell4once17OnceCell$LT$T$GT$8try_init17h6e531beec0fa4499E', symObjAddr: 0x2A1D8, symBinAddr: 0x49F68, symSize: 0x48 }
  - { offset: 0xBDA87, size: 0x8, addend: 0x0, symName: '__ZN4core4cell4once17OnceCell$LT$T$GT$8try_init17h6e677814c1a7813aE', symObjAddr: 0x2A220, symBinAddr: 0x49FB0, symSize: 0xFC }
  - { offset: 0xBDD3A, size: 0x8, addend: 0x0, symName: '__ZN4core4cell4once17OnceCell$LT$T$GT$8try_init17h8972385c78dc932cE', symObjAddr: 0x2A31C, symBinAddr: 0x4A0AC, symSize: 0x68 }
  - { offset: 0xBE21F, size: 0x8, addend: 0x0, symName: '__ZN55_$LT$$RF$str$u20$as$u20$core..str..pattern..Pattern$GT$15is_contained_in17h430773999f818014E', symObjAddr: 0x32A4C, symBinAddr: 0x2C2D4, symSize: 0x3C0 }
  - { offset: 0xBE782, size: 0x8, addend: 0x0, symName: __ZN4core5error5Error11description17h4589987446fd5ac6E, symObjAddr: 0x2A480, symBinAddr: 0x24988, symSize: 0x10 }
  - { offset: 0xBE79D, size: 0x8, addend: 0x0, symName: __ZN4core5error5Error5cause17h6891b85bf60530f6E, symObjAddr: 0x2A4A8, symBinAddr: 0x24998, symSize: 0x8 }
  - { offset: 0xBE7B8, size: 0x8, addend: 0x0, symName: __ZN4core5error5Error7provide17h1f3fdd0db7c7e182E, symObjAddr: 0x2A4B0, symBinAddr: 0x249A0, symSize: 0x4 }
  - { offset: 0xBE7D4, size: 0x8, addend: 0x0, symName: __ZN4core5error5Error7type_id17h2e9fc2d3cb58850fE, symObjAddr: 0x2A4B8, symBinAddr: 0x249A4, symSize: 0x14 }
  - { offset: 0xBE7F3, size: 0x8, addend: 0x0, symName: __ZN4core5error5Error7type_id17h2e9fc2d3cb58850fE, symObjAddr: 0x2A4B8, symBinAddr: 0x249A4, symSize: 0x14 }
  - { offset: 0xBE80D, size: 0x8, addend: 0x0, symName: __ZN4core9panicking13assert_failed17h91a4aade06645873E, symObjAddr: 0x31E34, symBinAddr: 0x4A114, symSize: 0x28 }
  - { offset: 0xBEAFA, size: 0x8, addend: 0x0, symName: __ZN5alloc5alloc15exchange_malloc17hb1e0529d4a040f06E, symObjAddr: 0x396F8, symBinAddr: 0x2CFB4, symSize: 0x48 }
  - { offset: 0xBF925, size: 0x8, addend: 0x0, symName: '__ZN64_$LT$alloc..ffi..c_str..NulError$u20$as$u20$core..fmt..Debug$GT$3fmt17h168a13496cd5cc5cE', symObjAddr: 0x447EC, symBinAddr: 0x344A0, symSize: 0x4C }
  - { offset: 0xBFDD1, size: 0x8, addend: 0x0, symName: '__ZN5alloc11collections5btree3map25IntoIter$LT$K$C$V$C$A$GT$10dying_next17h7a8ee336420e7b95E', symObjAddr: 0x37140, symBinAddr: 0x2C848, symSize: 0x204 }
  - { offset: 0xC01D8, size: 0x8, addend: 0x0, symName: '__ZN5alloc11collections5btree3map25IntoIter$LT$K$C$V$C$A$GT$10dying_next17he4195a5e08df44a2E', symObjAddr: 0x37344, symBinAddr: 0x2CA4C, symSize: 0x204 }
  - { offset: 0xC0C46, size: 0x8, addend: 0x0, symName: '__ZN5alloc7raw_vec20RawVecInner$LT$A$GT$11finish_grow17h0882e8a07a9209c8E', symObjAddr: 0x39C48, symBinAddr: 0x4A5DC, symSize: 0x94 }
  - { offset: 0xC0D63, size: 0x8, addend: 0x0, symName: '__ZN5alloc7raw_vec20RawVecInner$LT$A$GT$11finish_grow17h4077e62a367bc7b9E', symObjAddr: 0x39CDC, symBinAddr: 0x4A670, symSize: 0xC4 }
  - { offset: 0xC0F10, size: 0x8, addend: 0x0, symName: '__ZN5alloc7raw_vec20RawVecInner$LT$A$GT$14grow_amortized17h3db576a3a1182e40E', symObjAddr: 0x39DA0, symBinAddr: 0x4A734, symSize: 0x70 }
  - { offset: 0xC14BC, size: 0x8, addend: 0x0, symName: '__ZN5alloc7raw_vec19RawVec$LT$T$C$A$GT$8grow_one17h076af5c3b727c7faE', symObjAddr: 0x39740, symBinAddr: 0x4A13C, symSize: 0x68 }
  - { offset: 0xC1540, size: 0x8, addend: 0x0, symName: '__ZN5alloc7raw_vec19RawVec$LT$T$C$A$GT$8grow_one17h090f7e6dbb8050b0E', symObjAddr: 0x397A8, symBinAddr: 0x4A1A4, symSize: 0x68 }
  - { offset: 0xC15C4, size: 0x8, addend: 0x0, symName: '__ZN5alloc7raw_vec19RawVec$LT$T$C$A$GT$8grow_one17h0bee2fa1ccfa10eaE', symObjAddr: 0x39810, symBinAddr: 0x4A20C, symSize: 0x68 }
  - { offset: 0xC1648, size: 0x8, addend: 0x0, symName: '__ZN5alloc7raw_vec19RawVec$LT$T$C$A$GT$8grow_one17h172a6fcdd003e802E', symObjAddr: 0x39878, symBinAddr: 0x4A274, symSize: 0x68 }
  - { offset: 0xC16CC, size: 0x8, addend: 0x0, symName: '__ZN5alloc7raw_vec19RawVec$LT$T$C$A$GT$8grow_one17h2661d3025ea7481fE', symObjAddr: 0x398E0, symBinAddr: 0x4A2DC, symSize: 0x68 }
  - { offset: 0xC1750, size: 0x8, addend: 0x0, symName: '__ZN5alloc7raw_vec19RawVec$LT$T$C$A$GT$8grow_one17h26ee37121cbeae46E', symObjAddr: 0x39948, symBinAddr: 0x4A344, symSize: 0x68 }
  - { offset: 0xC17D4, size: 0x8, addend: 0x0, symName: '__ZN5alloc7raw_vec19RawVec$LT$T$C$A$GT$8grow_one17h3c120d29cb6a6b4fE', symObjAddr: 0x399B0, symBinAddr: 0x4A3AC, symSize: 0x68 }
  - { offset: 0xC1858, size: 0x8, addend: 0x0, symName: '__ZN5alloc7raw_vec19RawVec$LT$T$C$A$GT$8grow_one17h4aa8e58bef6d4f51E', symObjAddr: 0x39A18, symBinAddr: 0x4A414, symSize: 0x68 }
  - { offset: 0xC18DC, size: 0x8, addend: 0x0, symName: '__ZN5alloc7raw_vec19RawVec$LT$T$C$A$GT$8grow_one17h561d0d5b833eb902E', symObjAddr: 0x39A80, symBinAddr: 0x4A47C, symSize: 0x68 }
  - { offset: 0xC1960, size: 0x8, addend: 0x0, symName: '__ZN5alloc7raw_vec19RawVec$LT$T$C$A$GT$8grow_one17h75b7531a042fa7ccE', symObjAddr: 0x39AE8, symBinAddr: 0x4A4E4, symSize: 0x28 }
  - { offset: 0xC1988, size: 0x8, addend: 0x0, symName: '__ZN5alloc7raw_vec19RawVec$LT$T$C$A$GT$8grow_one17h7eb2cbbb8a0db089E', symObjAddr: 0x39B10, symBinAddr: 0x4A50C, symSize: 0x68 }
  - { offset: 0xC1A0C, size: 0x8, addend: 0x0, symName: '__ZN5alloc7raw_vec19RawVec$LT$T$C$A$GT$8grow_one17hd39f848ae2b60a23E', symObjAddr: 0x39BE0, symBinAddr: 0x4A574, symSize: 0x68 }
  - { offset: 0xC1CF5, size: 0x8, addend: 0x0, symName: '__ZN5alloc7raw_vec20RawVecInner$LT$A$GT$7reserve21do_reserve_and_handle17h8dee76af07027cbbE', symObjAddr: 0x39E10, symBinAddr: 0x4A7A4, symSize: 0x8C }
  - { offset: 0xC1ECD, size: 0x8, addend: 0x0, symName: '__ZN58_$LT$alloc..string..String$u20$as$u20$core..fmt..Debug$GT$3fmt17h80152912950d0a9cE', symObjAddr: 0x33D90, symBinAddr: 0x2C694, symSize: 0x10 }
  - { offset: 0xC1F88, size: 0x8, addend: 0x0, symName: '__ZN58_$LT$alloc..string..String$u20$as$u20$core..fmt..Write$GT$10write_char17h5a90e0e0b6d91f2fE', symObjAddr: 0x33DA0, symBinAddr: 0x2C6A4, symSize: 0x120 }
  - { offset: 0xC212B, size: 0x8, addend: 0x0, symName: '__ZN58_$LT$alloc..string..String$u20$as$u20$core..fmt..Write$GT$9write_str17hfaf892e59da79312E', symObjAddr: 0x33EC0, symBinAddr: 0x2C7C4, symSize: 0x80 }
  - { offset: 0xC2284, size: 0x8, addend: 0x0, symName: '__ZN60_$LT$alloc..string..String$u20$as$u20$core..fmt..Display$GT$3fmt17hf4ed6bc6dff88b09E', symObjAddr: 0x40DA4, symBinAddr: 0x33F04, symSize: 0x10 }
  - { offset: 0xC26AF, size: 0x8, addend: 0x0, symName: '__ZN5alloc4sync16Arc$LT$T$C$A$GT$9drop_slow17h25b9860950f177bcE', symObjAddr: 0x392FC, symBinAddr: 0x2CC50, symSize: 0xA0 }
  - { offset: 0xC2A2A, size: 0x8, addend: 0x0, symName: '__ZN5alloc4sync16Arc$LT$T$C$A$GT$9drop_slow17h71df4fd48406dc60E', symObjAddr: 0x3939C, symBinAddr: 0x2CCF0, symSize: 0x2C }
  - { offset: 0xC2B08, size: 0x8, addend: 0x0, symName: '__ZN5alloc4sync16Arc$LT$T$C$A$GT$9drop_slow17ha50ff6a1a3f62c11E', symObjAddr: 0x393C8, symBinAddr: 0x2CD1C, symSize: 0x98 }
  - { offset: 0xC2D00, size: 0x8, addend: 0x0, symName: '__ZN5alloc4sync16Arc$LT$T$C$A$GT$9drop_slow17hc70d573bd026517aE', symObjAddr: 0x394F8, symBinAddr: 0x2CDB4, symSize: 0xC0 }
  - { offset: 0xC30D5, size: 0x8, addend: 0x0, symName: '__ZN5alloc4sync16Arc$LT$T$C$A$GT$9drop_slow17hd1b70e3b8458b067E', symObjAddr: 0x395B8, symBinAddr: 0x2CE74, symSize: 0x70 }
  - { offset: 0xC32CD, size: 0x8, addend: 0x0, symName: '__ZN5alloc4sync16Arc$LT$T$C$A$GT$9drop_slow17hf2c19f3499b53b5fE', symObjAddr: 0x39628, symBinAddr: 0x2CEE4, symSize: 0xD0 }
  - { offset: 0xC3CCA, size: 0x8, addend: 0x0, symName: __ZN6object4read7archive13ArchiveMember5parse17h95faa19ee50b9bbfE, symObjAddr: 0x45FDC, symBinAddr: 0x34688, symSize: 0x598 }
  - { offset: 0xC502D, size: 0x8, addend: 0x0, symName: '__ZN9addr2line4unit16ResUnit$LT$R$GT$25find_function_or_location28_$u7b$$u7b$closure$u7d$$u7d$17hec4a556de48c3644E', symObjAddr: 0x4CBDC, symBinAddr: 0x36A24, symSize: 0x310 }
  - { offset: 0xC53BE, size: 0x8, addend: 0x0, symName: '__ZN9addr2line4unit16ResUnit$LT$R$GT$25find_function_or_location17h60e6b77d3a359b80E', symObjAddr: 0x4C85C, symBinAddr: 0x366A4, symSize: 0x380 }
  - { offset: 0xC58DE, size: 0x8, addend: 0x0, symName: '__ZN9addr2line16Context$LT$R$GT$9find_unit17h89933a649d55666dE', symObjAddr: 0x4C290, symBinAddr: 0x360D8, symSize: 0x15C }
  - { offset: 0xC5A5E, size: 0x8, addend: 0x0, symName: '__ZN9addr2line6lookup30LoopingLookup$LT$T$C$L$C$F$GT$10new_lookup17h094a85c8d7ca55ebE', symObjAddr: 0x4D1AC, symBinAddr: 0x36FF4, symSize: 0x430 }
  - { offset: 0xC6047, size: 0x8, addend: 0x0, symName: __ZN9addr2line4line11render_file17hef77e94975b1e8a7E, symObjAddr: 0x4C3EC, symBinAddr: 0x36234, symSize: 0x470 }
  - { offset: 0xC6ABE, size: 0x8, addend: 0x0, symName: '__ZN9addr2line8function17Function$LT$R$GT$14parse_children17hdf89f5cee4cf20adE', symObjAddr: 0x4D940, symBinAddr: 0x37788, symSize: 0xE7C }
  - { offset: 0xC83DE, size: 0x8, addend: 0x0, symName: __ZN9addr2line8function10name_entry17h2bb809ac1f153239E, symObjAddr: 0x4D5DC, symBinAddr: 0x37424, symSize: 0x364 }
  - { offset: 0xC88CE, size: 0x8, addend: 0x0, symName: __ZN9addr2line8function9name_attr17h131019629f5ce611E, symObjAddr: 0x4E7BC, symBinAddr: 0x38604, symSize: 0x1C0 }
  - { offset: 0xC8ABA, size: 0x8, addend: 0x0, symName: '__ZN9addr2line5frame18FrameIter$LT$R$GT$4next17h87aba3194b4c661eE', symObjAddr: 0x4CEEC, symBinAddr: 0x36D34, symSize: 0x2C0 }
  - { offset: 0xC9405, size: 0x8, addend: 0x0, symName: '__ZN5gimli4read5dwarf14Dwarf$LT$R$GT$11attr_string17h689adca9e21a2f4aE', symObjAddr: 0x3EFA8, symBinAddr: 0x32108, symSize: 0x220 }
  - { offset: 0xC9ABC, size: 0x8, addend: 0x0, symName: '__ZN5gimli4read5dwarf13Unit$LT$R$GT$3new17h89cbf227e57a51d0E', symObjAddr: 0x3D338, symBinAddr: 0x30498, symSize: 0x1C70 }
  - { offset: 0xCD442, size: 0x8, addend: 0x0, symName: '__ZN5gimli4read7aranges30ArangeHeader$LT$R$C$Offset$GT$5parse17ha948e1d4548f6d11E', symObjAddr: 0x3FE28, symBinAddr: 0x32F88, symSize: 0x2A8 }
  - { offset: 0xCDE0B, size: 0x8, addend: 0x0, symName: '__ZN5gimli4read4unit18Attribute$LT$R$GT$5value17h151f62fffb6fbf33E', symObjAddr: 0x3C3E8, symBinAddr: 0x2F548, symSize: 0x654 }
  - { offset: 0xCE1E5, size: 0x8, addend: 0x0, symName: '__ZN90_$LT$gimli..read..unit..AttributeValue$LT$R$C$Offset$GT$$u20$as$u20$core..clone..Clone$GT$5clone17hfe13305dd6517dd9E', symObjAddr: 0x4AFD0, symBinAddr: 0x3583C, symSize: 0x68 }
  - { offset: 0xCE240, size: 0x8, addend: 0x0, symName: '__ZN5gimli4read4unit32AttributeValue$LT$R$C$Offset$GT$8u8_value17h50e14451dcb8cad7E', symObjAddr: 0x3CCF4, symBinAddr: 0x2FE54, symSize: 0x94 }
  - { offset: 0xCE277, size: 0x8, addend: 0x0, symName: '__ZN5gimli4read4unit32AttributeValue$LT$R$C$Offset$GT$9u16_value17h2d7eaf37ff0a5842E', symObjAddr: 0x3CD88, symBinAddr: 0x2FEE8, symSize: 0x94 }
  - { offset: 0xCE2F0, size: 0x8, addend: 0x0, symName: __ZN5gimli4read4unit15parse_attribute17h27e9c78b8c1ac48bE, symObjAddr: 0x3B008, symBinAddr: 0x2E168, symSize: 0xF74 }
  - { offset: 0xD0B3D, size: 0x8, addend: 0x0, symName: __ZN5gimli4read4unit15skip_attributes17he0f07f55939a5ca1E, symObjAddr: 0x3BF7C, symBinAddr: 0x2F0DC, symSize: 0x46C }
  - { offset: 0xD140F, size: 0x8, addend: 0x0, symName: '__ZN5gimli4read4unit22EntriesCursor$LT$R$GT$10next_entry17h7c1af575df8a4674E', symObjAddr: 0x3CA3C, symBinAddr: 0x2FB9C, symSize: 0x2B8 }
  - { offset: 0xD19B5, size: 0x8, addend: 0x0, symName: '__ZN5gimli4read4unit33DebugInfoUnitHeadersIter$LT$R$GT$4next17h4d1dce6cff058e13E', symObjAddr: 0x3CE1C, symBinAddr: 0x2FF7C, symSize: 0x51C }
  - { offset: 0xD2BAA, size: 0x8, addend: 0x0, symName: __ZN5gimli4read6reader6Reader11read_offset17h46e8a2a18e8b10b8E, symObjAddr: 0x3F974, symBinAddr: 0x32AD4, symSize: 0xB4 }
  - { offset: 0xD2D9F, size: 0x8, addend: 0x0, symName: __ZN5gimli4read6reader6Reader12read_sleb12817h8557ab285ed9094cE, symObjAddr: 0x3FA28, symBinAddr: 0x32B88, symSize: 0x23C }
  - { offset: 0xD2E6F, size: 0x8, addend: 0x0, symName: __ZN5gimli4read6reader6Reader12read_uleb12817h62b12b0daaddce59E, symObjAddr: 0x3FC64, symBinAddr: 0x32DC4, symSize: 0xB8 }
  - { offset: 0xD2F2C, size: 0x8, addend: 0x0, symName: __ZN5gimli4read6reader6Reader17read_sized_offset17hec2b40ed1e51cae5E, symObjAddr: 0x3FD1C, symBinAddr: 0x32E7C, symSize: 0x10C }
  - { offset: 0xD354C, size: 0x8, addend: 0x0, symName: '__ZN5gimli4read8rnglists20RngListIter$LT$R$GT$4next17ha0add38c23e78896E', symObjAddr: 0x400D0, symBinAddr: 0x33230, symSize: 0xCD4 }
  - { offset: 0xD5D3C, size: 0x8, addend: 0x0, symName: '__ZN5gimli4read5index18UnitIndex$LT$R$GT$5parse17h5f35e7620a98c0b5E', symObjAddr: 0x3F1C8, symBinAddr: 0x32328, symSize: 0x7AC }
  - { offset: 0xD6416, size: 0x8, addend: 0x0, symName: '__ZN5gimli4read4line27FileEntry$LT$R$C$Offset$GT$5parse17h118cfabb3c070fa8E', symObjAddr: 0x3ADEC, symBinAddr: 0x2DF4C, symSize: 0x21C }
  - { offset: 0xD66D7, size: 0x8, addend: 0x0, symName: __ZN5gimli4read4line13parse_file_v517h5e7878f8ccab2686E, symObjAddr: 0x39E9C, symBinAddr: 0x2CFFC, symSize: 0x2A8 }
  - { offset: 0xD687D, size: 0x8, addend: 0x0, symName: __ZN5gimli4read4line15FileEntryFormat5parse17hc9f01ae9af9bf080E, symObjAddr: 0x3A144, symBinAddr: 0x2D2A4, symSize: 0x350 }
  - { offset: 0xD70A4, size: 0x8, addend: 0x0, symName: __ZN5gimli4read4line15parse_attribute17h7b128c67c97fa15cE, symObjAddr: 0x3A494, symBinAddr: 0x2D5F4, symSize: 0x874 }
  - { offset: 0xD8641, size: 0x8, addend: 0x0, symName: __ZN5gimli4read4line18parse_directory_v517h87174ca6c4797958E, symObjAddr: 0x3AD08, symBinAddr: 0x2DE68, symSize: 0xE4 }
  - { offset: 0xD8714, size: 0x8, addend: 0x0, symName: '__ZN85_$LT$gimli..read..line..FileEntry$LT$R$C$Offset$GT$$u20$as$u20$core..clone..Clone$GT$5clone17hdc0c2b97d81a06f4E', symObjAddr: 0x4A8D8, symBinAddr: 0x355FC, symSize: 0x1D4 }
  - { offset: 0xD8923, size: 0x8, addend: 0x0, symName: _OUTLINED_FUNCTION_0, symObjAddr: 0x4EE00, symBinAddr: 0x38B3C, symSize: 0xC }
  - { offset: 0xD893B, size: 0x8, addend: 0x0, symName: _OUTLINED_FUNCTION_1, symObjAddr: 0x4EE0C, symBinAddr: 0x38B48, symSize: 0x8 }
  - { offset: 0xD8953, size: 0x8, addend: 0x0, symName: _OUTLINED_FUNCTION_2, symObjAddr: 0x4EE14, symBinAddr: 0x38B50, symSize: 0xC }
  - { offset: 0xD896B, size: 0x8, addend: 0x0, symName: _OUTLINED_FUNCTION_3, symObjAddr: 0x4EE20, symBinAddr: 0x38B5C, symSize: 0xC }
  - { offset: 0xD8983, size: 0x8, addend: 0x0, symName: _OUTLINED_FUNCTION_4, symObjAddr: 0x4EE2C, symBinAddr: 0x38B68, symSize: 0x10 }
  - { offset: 0xD899B, size: 0x8, addend: 0x0, symName: _OUTLINED_FUNCTION_5, symObjAddr: 0x4EE3C, symBinAddr: 0x38B78, symSize: 0x10 }
  - { offset: 0xD89B3, size: 0x8, addend: 0x0, symName: _OUTLINED_FUNCTION_6, symObjAddr: 0x4EE4C, symBinAddr: 0x38B88, symSize: 0xC }
  - { offset: 0xD89CB, size: 0x8, addend: 0x0, symName: _OUTLINED_FUNCTION_7, symObjAddr: 0x4EE58, symBinAddr: 0x38B94, symSize: 0xC }
  - { offset: 0xD89E3, size: 0x8, addend: 0x0, symName: _OUTLINED_FUNCTION_8, symObjAddr: 0x4EE64, symBinAddr: 0x38BA0, symSize: 0xC }
  - { offset: 0xD89FB, size: 0x8, addend: 0x0, symName: _OUTLINED_FUNCTION_9, symObjAddr: 0x4EE70, symBinAddr: 0x38BAC, symSize: 0xC }
  - { offset: 0xD8A13, size: 0x8, addend: 0x0, symName: _OUTLINED_FUNCTION_10, symObjAddr: 0x4EE7C, symBinAddr: 0x38BB8, symSize: 0x8 }
  - { offset: 0xD8A2B, size: 0x8, addend: 0x0, symName: _OUTLINED_FUNCTION_11, symObjAddr: 0x4EE84, symBinAddr: 0x38BC0, symSize: 0x8 }
  - { offset: 0xD8A43, size: 0x8, addend: 0x0, symName: _OUTLINED_FUNCTION_12, symObjAddr: 0x4EE8C, symBinAddr: 0x38BC8, symSize: 0x24 }
  - { offset: 0xD8A5B, size: 0x8, addend: 0x0, symName: _OUTLINED_FUNCTION_13, symObjAddr: 0x4EEB0, symBinAddr: 0x38BEC, symSize: 0x8 }
  - { offset: 0xD8A73, size: 0x8, addend: 0x0, symName: _OUTLINED_FUNCTION_14, symObjAddr: 0x4EEB8, symBinAddr: 0x38BF4, symSize: 0x14 }
  - { offset: 0xD8A8B, size: 0x8, addend: 0x0, symName: _OUTLINED_FUNCTION_15, symObjAddr: 0x4EECC, symBinAddr: 0x38C08, symSize: 0xC }
  - { offset: 0xD8AA3, size: 0x8, addend: 0x0, symName: _OUTLINED_FUNCTION_16, symObjAddr: 0x4EED8, symBinAddr: 0x38C14, symSize: 0x10 }
  - { offset: 0xD8ABB, size: 0x8, addend: 0x0, symName: _OUTLINED_FUNCTION_17, symObjAddr: 0x4EEE8, symBinAddr: 0x38C24, symSize: 0x10 }
  - { offset: 0xD8AD3, size: 0x8, addend: 0x0, symName: _OUTLINED_FUNCTION_18, symObjAddr: 0x4EEF8, symBinAddr: 0x38C34, symSize: 0x8 }
  - { offset: 0xD8AEB, size: 0x8, addend: 0x0, symName: _OUTLINED_FUNCTION_19, symObjAddr: 0x4EF00, symBinAddr: 0x38C3C, symSize: 0x8 }
  - { offset: 0xD8B03, size: 0x8, addend: 0x0, symName: _OUTLINED_FUNCTION_20, symObjAddr: 0x4EF08, symBinAddr: 0x38C44, symSize: 0x8 }
  - { offset: 0xD8B1B, size: 0x8, addend: 0x0, symName: _OUTLINED_FUNCTION_21, symObjAddr: 0x4EF10, symBinAddr: 0x38C4C, symSize: 0x18 }
  - { offset: 0xD8B33, size: 0x8, addend: 0x0, symName: _OUTLINED_FUNCTION_22, symObjAddr: 0x4EF28, symBinAddr: 0x38C64, symSize: 0x18 }
  - { offset: 0xD8B4B, size: 0x8, addend: 0x0, symName: _OUTLINED_FUNCTION_23, symObjAddr: 0x4EF40, symBinAddr: 0x38C7C, symSize: 0x8 }
  - { offset: 0xD8B63, size: 0x8, addend: 0x0, symName: _OUTLINED_FUNCTION_25, symObjAddr: 0x4EF50, symBinAddr: 0x38C84, symSize: 0xC }
  - { offset: 0xD8B7B, size: 0x8, addend: 0x0, symName: _OUTLINED_FUNCTION_26, symObjAddr: 0x4EF5C, symBinAddr: 0x38C90, symSize: 0x8 }
  - { offset: 0xD8B93, size: 0x8, addend: 0x0, symName: _OUTLINED_FUNCTION_27, symObjAddr: 0x4EF64, symBinAddr: 0x38C98, symSize: 0xC }
  - { offset: 0xD8BAB, size: 0x8, addend: 0x0, symName: _OUTLINED_FUNCTION_28, symObjAddr: 0x4EF70, symBinAddr: 0x38CA4, symSize: 0x8 }
  - { offset: 0xD8BC3, size: 0x8, addend: 0x0, symName: _OUTLINED_FUNCTION_29, symObjAddr: 0x4EF78, symBinAddr: 0x38CAC, symSize: 0xC }
  - { offset: 0xD8BDB, size: 0x8, addend: 0x0, symName: _OUTLINED_FUNCTION_30, symObjAddr: 0x4EF84, symBinAddr: 0x38CB8, symSize: 0x8 }
  - { offset: 0xD8BF3, size: 0x8, addend: 0x0, symName: _OUTLINED_FUNCTION_31, symObjAddr: 0x4EF8C, symBinAddr: 0x38CC0, symSize: 0xC }
  - { offset: 0xD8C0B, size: 0x8, addend: 0x0, symName: _OUTLINED_FUNCTION_32, symObjAddr: 0x4EF98, symBinAddr: 0x38CCC, symSize: 0x8 }
  - { offset: 0xD8C23, size: 0x8, addend: 0x0, symName: _OUTLINED_FUNCTION_33, symObjAddr: 0x4EFA0, symBinAddr: 0x38CD4, symSize: 0xC }
  - { offset: 0xD8C3B, size: 0x8, addend: 0x0, symName: _OUTLINED_FUNCTION_34, symObjAddr: 0x4EFAC, symBinAddr: 0x38CE0, symSize: 0xC }
  - { offset: 0xD8C53, size: 0x8, addend: 0x0, symName: _OUTLINED_FUNCTION_35, symObjAddr: 0x4EFB8, symBinAddr: 0x38CEC, symSize: 0x10 }
  - { offset: 0xD8C6B, size: 0x8, addend: 0x0, symName: _OUTLINED_FUNCTION_36, symObjAddr: 0x4EFC8, symBinAddr: 0x38CFC, symSize: 0x14 }
  - { offset: 0xD8C83, size: 0x8, addend: 0x0, symName: _OUTLINED_FUNCTION_37, symObjAddr: 0x4EFDC, symBinAddr: 0x38D10, symSize: 0x14 }
  - { offset: 0xD8C9B, size: 0x8, addend: 0x0, symName: _OUTLINED_FUNCTION_38, symObjAddr: 0x4EFF0, symBinAddr: 0x38D24, symSize: 0xC }
  - { offset: 0xD8CB3, size: 0x8, addend: 0x0, symName: _OUTLINED_FUNCTION_39, symObjAddr: 0x4EFFC, symBinAddr: 0x38D30, symSize: 0xC }
  - { offset: 0xD8CCB, size: 0x8, addend: 0x0, symName: _OUTLINED_FUNCTION_40, symObjAddr: 0x4F008, symBinAddr: 0x38D3C, symSize: 0xC }
  - { offset: 0xD8CE3, size: 0x8, addend: 0x0, symName: _OUTLINED_FUNCTION_41, symObjAddr: 0x4F014, symBinAddr: 0x38D48, symSize: 0x14 }
  - { offset: 0xD8CFB, size: 0x8, addend: 0x0, symName: _OUTLINED_FUNCTION_42, symObjAddr: 0x4F028, symBinAddr: 0x38D5C, symSize: 0xC }
  - { offset: 0xD8D13, size: 0x8, addend: 0x0, symName: _OUTLINED_FUNCTION_43, symObjAddr: 0x4F034, symBinAddr: 0x38D68, symSize: 0x14 }
  - { offset: 0xD8D2B, size: 0x8, addend: 0x0, symName: _OUTLINED_FUNCTION_44, symObjAddr: 0x4F048, symBinAddr: 0x38D7C, symSize: 0x14 }
  - { offset: 0xD8D43, size: 0x8, addend: 0x0, symName: _OUTLINED_FUNCTION_45, symObjAddr: 0x4F05C, symBinAddr: 0x38D90, symSize: 0xC }
  - { offset: 0xD8D78, size: 0x8, addend: 0x0, symName: __RNvCs1Y7DaGC1cwg_7___rustc18___rust_start_panic, symObjAddr: 0x0, symBinAddr: 0x38D9C, symSize: 0xA0 }
  - { offset: 0xD8EAE, size: 0x8, addend: 0x0, symName: __ZN12panic_unwind3imp5panic17exception_cleanup17hbe8f77262e7f0ef7E, symObjAddr: 0x108, symBinAddr: 0x38EA4, symSize: 0x18 }
  - { offset: 0xD8ECA, size: 0x8, addend: 0x0, symName: __RNvCs1Y7DaGC1cwg_7___rustc18___rust_start_panic, symObjAddr: 0x0, symBinAddr: 0x38D9C, symSize: 0xA0 }
  - { offset: 0xD8F6B, size: 0x8, addend: 0x0, symName: __RNvCs1Y7DaGC1cwg_7___rustc20___rust_panic_cleanup, symObjAddr: 0xA0, symBinAddr: 0x38E3C, symSize: 0x68 }
  - { offset: 0xD9086, size: 0x8, addend: 0x0, symName: '__ZN4core3ptr49drop_in_place$LT$panic_unwind..imp..Exception$GT$17hc412668c4a436750E', symObjAddr: 0x120, symBinAddr: 0x38EBC, symSize: 0x78 }
  - { offset: 0xD91E2, size: 0x8, addend: 0x0, symName: '__ZN4core3ptr74drop_in_place$LT$alloc..boxed..Box$LT$panic_unwind..imp..Exception$GT$$GT$17ha6ad7fd972ad86c2E', symObjAddr: 0x198, symBinAddr: 0x38F34, symSize: 0x8C }
  - { offset: 0xD9562, size: 0x8, addend: 0x0, symName: __ZN5alloc5alloc18handle_alloc_error17h06754e1196e3be78E, symObjAddr: 0x2E34, symBinAddr: 0x4A9C0, symSize: 0x18 }
  - { offset: 0xD95B9, size: 0x8, addend: 0x0, symName: '__ZN254_$LT$alloc..boxed..convert..$LT$impl$u20$core..convert..From$LT$alloc..string..String$GT$$u20$for$u20$alloc..boxed..Box$LT$dyn$u20$core..error..Error$u2b$core..marker..Send$u2b$core..marker..Sync$GT$$GT$..from..StringError$u20$as$u20$core..fmt..Debug$GT$3fmt17h7eb09ef1d7b4a98aE', symObjAddr: 0xA8, symBinAddr: 0x4091C, symSize: 0x10 }
  - { offset: 0xD968A, size: 0x8, addend: 0x0, symName: '__ZN256_$LT$alloc..boxed..convert..$LT$impl$u20$core..convert..From$LT$alloc..string..String$GT$$u20$for$u20$alloc..boxed..Box$LT$dyn$u20$core..error..Error$u2b$core..marker..Send$u2b$core..marker..Sync$GT$$GT$..from..StringError$u20$as$u20$core..fmt..Display$GT$3fmt17h928d43bde7b021acE', symObjAddr: 0xB8, symBinAddr: 0x4092C, symSize: 0x10 }
  - { offset: 0xD9768, size: 0x8, addend: 0x0, symName: __ZN5alloc3ffi5c_str7CString19_from_vec_unchecked17h9d0bd2078034b7bdE, symObjAddr: 0x8D4, symBinAddr: 0x40B0C, symSize: 0x118 }
  - { offset: 0xD9AEC, size: 0x8, addend: 0x0, symName: '__ZN81_$LT$$RF$$u5b$u8$u5d$$u20$as$u20$alloc..ffi..c_str..CString..new..SpecNewImpl$GT$13spec_new_impl17h29fb88c6ef539f3eE', symObjAddr: 0x518C, symBinAddr: 0x410EC, symSize: 0x114 }
  - { offset: 0xD9EF4, size: 0x8, addend: 0x0, symName: '__ZN5alloc7raw_vec20RawVecInner$LT$A$GT$11finish_grow17h07ebf1fe5e4e6aadE', symObjAddr: 0x47A4, symBinAddr: 0x4AA0C, symSize: 0x8C }
  - { offset: 0xDA0FD, size: 0x8, addend: 0x0, symName: __ZN5alloc7raw_vec12handle_error17hd9deaf7dc19ebb3fE, symObjAddr: 0x4710, symBinAddr: 0x4A9D8, symSize: 0x14 }
  - { offset: 0xDA143, size: 0x8, addend: 0x0, symName: __ZN5alloc7raw_vec17capacity_overflow17ha06fdb2ecbad8510E, symObjAddr: 0x4724, symBinAddr: 0x4A9EC, symSize: 0x20 }
  - { offset: 0xDA174, size: 0x8, addend: 0x0, symName: '__ZN5alloc7raw_vec20RawVecInner$LT$A$GT$7reserve21do_reserve_and_handle17hc8d8ead11fd01459E', symObjAddr: 0x4830, symBinAddr: 0x4AA98, symSize: 0x78 }
  - { offset: 0xDA478, size: 0x8, addend: 0x0, symName: __ZN5alloc6string6String15from_utf8_lossy17h03e7be16830322ceE, symObjAddr: 0x3D68, symBinAddr: 0x40E4C, symSize: 0x21C }
  - { offset: 0xDAA07, size: 0x8, addend: 0x0, symName: '__ZN58_$LT$alloc..string..String$u20$as$u20$core..fmt..Write$GT$10write_char17h5a90e0e0b6d91f2fE', symObjAddr: 0x1C4, symBinAddr: 0x4097C, symSize: 0x118 }
  - { offset: 0xDABAA, size: 0x8, addend: 0x0, symName: '__ZN58_$LT$alloc..string..String$u20$as$u20$core..fmt..Write$GT$9write_str17hfaf892e59da79312E', symObjAddr: 0x2DC, symBinAddr: 0x40A94, symSize: 0x78 }
  - { offset: 0xDAD0F, size: 0x8, addend: 0x0, symName: '__ZN98_$LT$alloc..string..String$u20$as$u20$core..convert..From$LT$alloc..borrow..Cow$LT$str$GT$$GT$$GT$4from17h0e9a314daf6a74aaE', symObjAddr: 0x58E4, symBinAddr: 0x41200, symSize: 0x94 }
  - { offset: 0xDAE50, size: 0x8, addend: 0x0, symName: '__ZN60_$LT$alloc..string..String$u20$as$u20$core..clone..Clone$GT$5clone17hae67e35e1c94f097E', symObjAddr: 0x4924, symBinAddr: 0x41068, symSize: 0x70 }
  - { offset: 0xDAFC0, size: 0x8, addend: 0x0, symName: __ZN5alloc3fmt6format12format_inner17hd571df24e790cabcE, symObjAddr: 0xABC, symBinAddr: 0x40C24, symSize: 0x1B4 }
  - { offset: 0xDB2B8, size: 0x8, addend: 0x0, symName: __ZN5alloc4sync32arcinner_layout_for_value_layout17hf0ee80b011415e38E, symObjAddr: 0x2014, symBinAddr: 0x40DD8, symSize: 0x74 }
  - { offset: 0xDB44D, size: 0x8, addend: 0x0, symName: '__ZN4core3ptr42drop_in_place$LT$alloc..string..String$GT$17he39c8c7877fbb1cfE', symObjAddr: 0x104, symBinAddr: 0x40950, symSize: 0x18 }
  - { offset: 0xDB5FF, size: 0x8, addend: 0x0, symName: __ZN4core3fmt5Write9write_fmt17hdad91537415c094dE, symObjAddr: 0xD8, symBinAddr: 0x4093C, symSize: 0x14 }
  - { offset: 0xDB640, size: 0x8, addend: 0x0, symName: '__ZN53_$LT$core..fmt..Error$u20$as$u20$core..fmt..Debug$GT$3fmt17hd599aa5bd8b63259E', symObjAddr: 0x14C, symBinAddr: 0x40968, symSize: 0x14 }
  - { offset: 0xDB7CC, size: 0x8, addend: 0x0, symName: '__ZN69_$LT$core..alloc..layout..LayoutError$u20$as$u20$core..fmt..Debug$GT$3fmt17hc913e1f93d2039acE', symObjAddr: 0x4C50, symBinAddr: 0x410D8, symSize: 0x14 }
  - { offset: 0xDB870, size: 0x8, addend: 0x0, symName: '__ZN71_$LT$core..ops..range..Range$LT$Idx$GT$$u20$as$u20$core..fmt..Debug$GT$3fmt17h873bce13798e5e29E', symObjAddr: 0x1B7F8, symBinAddr: 0x45D10, symSize: 0x5C }
  - { offset: 0xDBA98, size: 0x8, addend: 0x0, symName: '__ZN4core4char7methods22_$LT$impl$u20$char$GT$16escape_debug_ext17h98265cff85085a54E', symObjAddr: 0x14964, symBinAddr: 0x45224, symSize: 0x284 }
  - { offset: 0xDC066, size: 0x8, addend: 0x0, symName: __ZN4core6option13expect_failed17h046c57d62660cfdeE, symObjAddr: 0x150D8, symBinAddr: 0x4AC20, symSize: 0x30 }
  - { offset: 0xDC096, size: 0x8, addend: 0x0, symName: __ZN4core6option13unwrap_failed17h639b4bdf1cab8c92E, symObjAddr: 0x15108, symBinAddr: 0x4AC50, symSize: 0x1C }
  - { offset: 0xDC49C, size: 0x8, addend: 0x0, symName: __ZN4core5slice5index16slice_index_fail17hadaab6fd6d0d9c6dE, symObjAddr: 0x14E28, symBinAddr: 0x4AB6C, symSize: 0xB4 }
  - { offset: 0xDC56F, size: 0x8, addend: 0x0, symName: __ZN4core5slice6memchr14memchr_aligned17h58876bc074a374c5E, symObjAddr: 0x14EDC, symBinAddr: 0x454D4, symSize: 0xDC }
  - { offset: 0xDC586, size: 0x8, addend: 0x0, symName: __ZN4core5slice6memchr14memchr_aligned17h58876bc074a374c5E, symObjAddr: 0x14EDC, symBinAddr: 0x454D4, symSize: 0xDC }
  - { offset: 0xDC59B, size: 0x8, addend: 0x0, symName: __ZN4core5slice6memchr14memchr_aligned17h58876bc074a374c5E, symObjAddr: 0x14EDC, symBinAddr: 0x454D4, symSize: 0xDC }
  - { offset: 0xDC5AF, size: 0x8, addend: 0x0, symName: __ZN4core5slice6memchr14memchr_aligned17h58876bc074a374c5E, symObjAddr: 0x14EDC, symBinAddr: 0x454D4, symSize: 0xDC }
  - { offset: 0xDC5C4, size: 0x8, addend: 0x0, symName: __ZN4core5slice6memchr14memchr_aligned17h58876bc074a374c5E, symObjAddr: 0x14EDC, symBinAddr: 0x454D4, symSize: 0xDC }
  - { offset: 0xDC6B7, size: 0x8, addend: 0x0, symName: __ZN4core5slice4sort6shared9smallsort22panic_on_ord_violation17hd3313c9f7c45d9beE, symObjAddr: 0x14D2C, symBinAddr: 0x4AB4C, symSize: 0x20 }
  - { offset: 0xDC6DE, size: 0x8, addend: 0x0, symName: __ZN4core5slice4sort6stable5drift11sqrt_approx17h7172482306e3fab5E, symObjAddr: 0x14D4C, symBinAddr: 0x454A8, symSize: 0x2C }
  - { offset: 0xDC7CB, size: 0x8, addend: 0x0, symName: __ZN4core3fmt9Formatter10debug_list17h407e5d59814220c0E, symObjAddr: 0x964C, symBinAddr: 0x42DCC, symSize: 0x48 }
  - { offset: 0xDC80A, size: 0x8, addend: 0x0, symName: __ZN4core3fmt9Formatter11debug_tuple17hb5f69876c53d8ebeE, symObjAddr: 0x9694, symBinAddr: 0x42E14, symSize: 0x50 }
  - { offset: 0xDC857, size: 0x8, addend: 0x0, symName: __ZN4core3fmt9Formatter12debug_struct17hb3c308a0aefbfabcE, symObjAddr: 0x96E4, symBinAddr: 0x42E64, symSize: 0x3C }
  - { offset: 0xDC8BC, size: 0x8, addend: 0x0, symName: __ZN4core3fmt9Formatter12pad_integral17he9c4cc6a70efff29E, symObjAddr: 0x979C, symBinAddr: 0x42F1C, symSize: 0x3B4 }
  - { offset: 0xDCC11, size: 0x8, addend: 0x0, symName: __ZN4core3fmt9Formatter25debug_tuple_field1_finish17h52b9bab2e8c5e442E, symObjAddr: 0xA008, symBinAddr: 0x432D0, symSize: 0x160 }
  - { offset: 0xDCE0B, size: 0x8, addend: 0x0, symName: __ZN4core3fmt9Formatter25debug_tuple_field2_finish17h07cc8418f8684ba7E, symObjAddr: 0xA168, symBinAddr: 0x43430, symSize: 0x1D8 }
  - { offset: 0xDD102, size: 0x8, addend: 0x0, symName: __ZN4core3fmt9Formatter26debug_struct_field1_finish17hc4fe7ab49988cdf4E, symObjAddr: 0xAF20, symBinAddr: 0x43608, symSize: 0xD0 }
  - { offset: 0xDD1D1, size: 0x8, addend: 0x0, symName: __ZN4core3fmt9Formatter26debug_struct_field2_finish17h535567fd3c0283daE, symObjAddr: 0xAFF0, symBinAddr: 0x436D8, symSize: 0x104 }
  - { offset: 0xDD2A7, size: 0x8, addend: 0x0, symName: __ZN4core3fmt9Formatter3pad17h979e8369ca7c7fc2E, symObjAddr: 0xB604, symBinAddr: 0x437DC, symSize: 0x30C }
  - { offset: 0xDD608, size: 0x8, addend: 0x0, symName: __ZN4core3fmt9Formatter9write_str17hb8f0cf0ff8aadc12E, symObjAddr: 0xB9BC, symBinAddr: 0x43AE8, symSize: 0x10 }
  - { offset: 0xDD673, size: 0x8, addend: 0x0, symName: __ZN4core3fmt8builders11DebugStruct21finish_non_exhaustive17hf024e414364f6665E, symObjAddr: 0x8AF4, symBinAddr: 0x42944, symSize: 0xC4 }
  - { offset: 0xDD79B, size: 0x8, addend: 0x0, symName: __ZN4core3fmt8builders11DebugStruct5field17hea5b513352be43bbE, symObjAddr: 0x8BB8, symBinAddr: 0x42A08, symSize: 0x1B4 }
  - { offset: 0xDD9A5, size: 0x8, addend: 0x0, symName: __ZN4core3fmt8builders11DebugStruct6finish17h16ef6a2561cc2f55E, symObjAddr: 0x8D6C, symBinAddr: 0x42BBC, symSize: 0x7C }
  - { offset: 0xDDAD6, size: 0x8, addend: 0x0, symName: __ZN4core3fmt8builders10DebugTuple5field17hfbca29a9834095ceE, symObjAddr: 0x88D4, symBinAddr: 0x42724, symSize: 0x148 }
  - { offset: 0xDDC53, size: 0x8, addend: 0x0, symName: __ZN4core3fmt8builders10DebugTuple6finish17h52f03d3ffb0e3841E, symObjAddr: 0x8A1C, symBinAddr: 0x4286C, symSize: 0xB4 }
  - { offset: 0xDDD73, size: 0x8, addend: 0x0, symName: __ZN4core3fmt8builders10PadAdapter4wrap17hc04d1a980c34d84cE, symObjAddr: 0x8AD0, symBinAddr: 0x42920, symSize: 0x24 }
  - { offset: 0xDDD8A, size: 0x8, addend: 0x0, symName: __ZN4core3fmt8builders10PadAdapter4wrap17hc04d1a980c34d84cE, symObjAddr: 0x8AD0, symBinAddr: 0x42920, symSize: 0x24 }
  - { offset: 0xDDDE5, size: 0x8, addend: 0x0, symName: __ZN4core3fmt8builders8DebugSet5entry17hbfd8fd0f439cb32dE, symObjAddr: 0x93A4, symBinAddr: 0x42C38, symSize: 0x148 }
  - { offset: 0xDDFC1, size: 0x8, addend: 0x0, symName: __ZN4core3fmt8builders9DebugList6finish17h0d8fee74adcf8cdbE, symObjAddr: 0x9600, symBinAddr: 0x42D80, symSize: 0x4C }
  - { offset: 0xDE03B, size: 0x8, addend: 0x0, symName: '__ZN68_$LT$core..fmt..builders..PadAdapter$u20$as$u20$core..fmt..Write$GT$10write_char17h93e9d598444c997eE', symObjAddr: 0x1A5B4, symBinAddr: 0x45A68, symSize: 0x80 }
  - { offset: 0xDE064, size: 0x8, addend: 0x0, symName: '__ZN68_$LT$core..fmt..builders..PadAdapter$u20$as$u20$core..fmt..Write$GT$9write_str17h7808c47bb78721c8E', symObjAddr: 0x1A634, symBinAddr: 0x45AE8, symSize: 0x228 }
  - { offset: 0xDE2DE, size: 0x8, addend: 0x0, symName: '__ZN57_$LT$core..fmt..Formatter$u20$as$u20$core..fmt..Write$GT$10write_char17hcc4b120288ebc94cE', symObjAddr: 0x16E34, symBinAddr: 0x45A34, symSize: 0x10 }
  - { offset: 0xDE317, size: 0x8, addend: 0x0, symName: '__ZN40_$LT$str$u20$as$u20$core..fmt..Debug$GT$3fmt17h069e32c991f2f464E', symObjAddr: 0x2F4, symBinAddr: 0x41294, symSize: 0x38C }
  - { offset: 0xDE7CA, size: 0x8, addend: 0x0, symName: '__ZN41_$LT$char$u20$as$u20$core..fmt..Debug$GT$3fmt17he6c6f05f190b878cE', symObjAddr: 0x680, symBinAddr: 0x41620, symSize: 0xA8 }
  - { offset: 0xDE8D3, size: 0x8, addend: 0x0, symName: '__ZN42_$LT$$RF$T$u20$as$u20$core..fmt..Debug$GT$3fmt17h29e68d3c600134bfE', symObjAddr: 0x728, symBinAddr: 0x416C8, symSize: 0x10 }
  - { offset: 0xDE8E7, size: 0x8, addend: 0x0, symName: '__ZN42_$LT$$RF$T$u20$as$u20$core..fmt..Debug$GT$3fmt17h6cb924658f2ae995E', symObjAddr: 0x7F4, symBinAddr: 0x416D8, symSize: 0x8 }
  - { offset: 0xDE8FB, size: 0x8, addend: 0x0, symName: '__ZN42_$LT$$RF$T$u20$as$u20$core..fmt..Debug$GT$3fmt17hcdc3a75195ae7434E', symObjAddr: 0x814, symBinAddr: 0x416E0, symSize: 0xC }
  - { offset: 0xDE923, size: 0x8, addend: 0x0, symName: '__ZN42_$LT$$RF$T$u20$as$u20$core..fmt..Debug$GT$3fmt17hd1cd0d46b73abe55E', symObjAddr: 0x820, symBinAddr: 0x416EC, symSize: 0x164 }
  - { offset: 0xDEC45, size: 0x8, addend: 0x0, symName: '__ZN4core3fmt3num3imp21_$LT$impl$u20$u32$GT$10_fmt_inner17h29bdc14fcba762d6E', symObjAddr: 0x1D60, symBinAddr: 0x41AEC, symSize: 0x1F0 }
  - { offset: 0xDECFF, size: 0x8, addend: 0x0, symName: '__ZN4core3fmt3num3imp21_$LT$impl$u20$u64$GT$10_fmt_inner17h776e44d2ad3db848E', symObjAddr: 0x1FAC, symBinAddr: 0x41CDC, symSize: 0x1F8 }
  - { offset: 0xDEDB8, size: 0x8, addend: 0x0, symName: '__ZN4core3fmt3num3imp51_$LT$impl$u20$core..fmt..Display$u20$for$u20$u8$GT$3fmt17h11aa1ac5ca6f7690E', symObjAddr: 0x22D0, symBinAddr: 0x41ED4, symSize: 0xB0 }
  - { offset: 0xDEE9C, size: 0x8, addend: 0x0, symName: '__ZN4core3fmt3num3imp52_$LT$impl$u20$core..fmt..Display$u20$for$u20$i32$GT$3fmt17h99dd8e7ec38bfc5bE', symObjAddr: 0x24A0, symBinAddr: 0x41F84, symSize: 0x6C }
  - { offset: 0xDEF45, size: 0x8, addend: 0x0, symName: '__ZN4core3fmt3num3imp52_$LT$impl$u20$core..fmt..Display$u20$for$u20$u32$GT$3fmt17h23ab9204a27a9fb5E', symObjAddr: 0x2680, symBinAddr: 0x41FF0, symSize: 0x60 }
  - { offset: 0xDEFEC, size: 0x8, addend: 0x0, symName: '__ZN4core3fmt3num3imp52_$LT$impl$u20$core..fmt..Display$u20$for$u20$u64$GT$3fmt17h96a34c9709e18daaE', symObjAddr: 0x26E0, symBinAddr: 0x42050, symSize: 0x60 }
  - { offset: 0xDF0A1, size: 0x8, addend: 0x0, symName: '__ZN4core3fmt3num52_$LT$impl$u20$core..fmt..LowerHex$u20$for$u20$u8$GT$3fmt17h82deba4c0160d689E', symObjAddr: 0x4528, symBinAddr: 0x422A4, symSize: 0x74 }
  - { offset: 0xDF112, size: 0x8, addend: 0x0, symName: '__ZN4core3fmt3num52_$LT$impl$u20$core..fmt..UpperHex$u20$for$u20$u8$GT$3fmt17h2d3ad3358ebd52f5E', symObjAddr: 0x4610, symBinAddr: 0x42318, symSize: 0x74 }
  - { offset: 0xDF196, size: 0x8, addend: 0x0, symName: '__ZN4core3fmt3num53_$LT$impl$u20$core..fmt..LowerHex$u20$for$u20$i32$GT$3fmt17hc3c1aeaa7c591ed5E', symObjAddr: 0x47D0, symBinAddr: 0x4238C, symSize: 0x74 }
  - { offset: 0xDF22F, size: 0x8, addend: 0x0, symName: '__ZN4core3fmt3num53_$LT$impl$u20$core..fmt..UpperHex$u20$for$u20$i32$GT$3fmt17h18bd04f8ce51787bE', symObjAddr: 0x4A88, symBinAddr: 0x42474, symSize: 0x74 }
  - { offset: 0xDF2B5, size: 0x8, addend: 0x0, symName: '__ZN4core3fmt3num53_$LT$impl$u20$core..fmt..LowerHex$u20$for$u20$u64$GT$3fmt17ha5871139ff208027E', symObjAddr: 0x49A0, symBinAddr: 0x42400, symSize: 0x74 }
  - { offset: 0xDF326, size: 0x8, addend: 0x0, symName: '__ZN4core3fmt3num53_$LT$impl$u20$core..fmt..UpperHex$u20$for$u20$u64$GT$3fmt17hace4c61852682eb9E', symObjAddr: 0x4C58, symBinAddr: 0x424E8, symSize: 0x74 }
  - { offset: 0xDF38B, size: 0x8, addend: 0x0, symName: '__ZN4core3fmt3num50_$LT$impl$u20$core..fmt..Debug$u20$for$u20$u64$GT$3fmt17h102e5ce057e743aaE', symObjAddr: 0x3918, symBinAddr: 0x420B0, symSize: 0xF4 }
  - { offset: 0xDF4BA, size: 0x8, addend: 0x0, symName: '__ZN4core3fmt3num52_$LT$impl$u20$core..fmt..Debug$u20$for$u20$usize$GT$3fmt17h92cb54035fd7d9bcE', symObjAddr: 0x43B4, symBinAddr: 0x421A4, symSize: 0x100 }
  - { offset: 0xDF5D7, size: 0x8, addend: 0x0, symName: '__ZN42_$LT$str$u20$as$u20$core..fmt..Display$GT$3fmt17h533bf60d4c7a653dE', symObjAddr: 0x994, symBinAddr: 0x41850, symSize: 0x14 }
  - { offset: 0xDF5FD, size: 0x8, addend: 0x0, symName: '__ZN43_$LT$char$u20$as$u20$core..fmt..Display$GT$3fmt17h9e4499ba7cbcb02bE', symObjAddr: 0x9DC, symBinAddr: 0x41864, symSize: 0xD4 }
  - { offset: 0xDF673, size: 0x8, addend: 0x0, symName: '__ZN44_$LT$$RF$T$u20$as$u20$core..fmt..Display$GT$3fmt17hd6f1c0f26313dcaeE', symObjAddr: 0xB24, symBinAddr: 0x41938, symSize: 0x10 }
  - { offset: 0xDF6A4, size: 0x8, addend: 0x0, symName: __ZN4core3fmt17pointer_fmt_inner17hc9ade6f5410a0475E, symObjAddr: 0xF8C, symBinAddr: 0x41A38, symSize: 0xB4 }
  - { offset: 0xDF775, size: 0x8, addend: 0x0, symName: __ZN4core3fmt5Write9write_fmt17hf194e81d924e350eE, symObjAddr: 0x5D54, symBinAddr: 0x4255C, symSize: 0x14 }
  - { offset: 0xDF802, size: 0x8, addend: 0x0, symName: __ZN4core3fmt5write17hedd53bdb9e87b4cfE, symObjAddr: 0x8660, symBinAddr: 0x42570, symSize: 0x1B4 }
  - { offset: 0xDFA85, size: 0x8, addend: 0x0, symName: __ZN4core3fmt9Formatter12pad_integral12write_prefix17ha0951390ec14bbe2E, symObjAddr: 0x9720, symBinAddr: 0x42EA0, symSize: 0x7C }
  - { offset: 0xDFADD, size: 0x8, addend: 0x0, symName: '__ZN59_$LT$core..fmt..Arguments$u20$as$u20$core..fmt..Display$GT$3fmt17hb62dcf3881ce8b49E', symObjAddr: 0x17A5C, symBinAddr: 0x45A44, symSize: 0x10 }
  - { offset: 0xDFC2E, size: 0x8, addend: 0x0, symName: __ZN4core6result13unwrap_failed17hfd1628134417d023E, symObjAddr: 0x15124, symBinAddr: 0x4AC6C, symSize: 0x48 }
  - { offset: 0xDFE21, size: 0x8, addend: 0x0, symName: __ZN4core3str5count14do_count_chars17hc8b5862f6fbdfa43E, symObjAddr: 0x13188, symBinAddr: 0x43D58, symSize: 0x718 }
  - { offset: 0xE0222, size: 0x8, addend: 0x0, symName: __ZN4core3str5count23char_count_general_case17h9bc7ea58c5c8c8c5E, symObjAddr: 0x138A0, symBinAddr: 0x44470, symSize: 0x2A8 }
  - { offset: 0xE02CB, size: 0x8, addend: 0x0, symName: __ZN4core3str16slice_error_fail17hecde84adb67345c5E, symObjAddr: 0x12DD4, symBinAddr: 0x4AB10, symSize: 0xC }
  - { offset: 0xE02E4, size: 0x8, addend: 0x0, symName: __ZN4core3str19slice_error_fail_rt17hc8c4ba0d7ed804e6E, symObjAddr: 0x12DFC, symBinAddr: 0x43AF8, symSize: 0x260 }
  - { offset: 0xE0422, size: 0x8, addend: 0x0, symName: __ZN4core3str7pattern11StrSearcher3new17h4cabcb1377b9c47bE, symObjAddr: 0x13B64, symBinAddr: 0x44718, symSize: 0x898 }
  - { offset: 0xE06E3, size: 0x8, addend: 0x0, symName: __ZN4core3str8converts9from_utf817h3d3f04c61e7c2c97E, symObjAddr: 0x14670, symBinAddr: 0x44FB0, symSize: 0x274 }
  - { offset: 0xE0700, size: 0x8, addend: 0x0, symName: __ZN4core3str8converts9from_utf817h3d3f04c61e7c2c97E, symObjAddr: 0x14670, symBinAddr: 0x44FB0, symSize: 0x274 }
  - { offset: 0xE0780, size: 0x8, addend: 0x0, symName: '__ZN87_$LT$core..str..lossy..Utf8Chunks$u20$as$u20$core..iter..traits..iterator..Iterator$GT$4next17hbcb5d3b15aa662edE', symObjAddr: 0x1D7A8, symBinAddr: 0x45D6C, symSize: 0x1C0 }
  - { offset: 0xE0995, size: 0x8, addend: 0x0, symName: __ZN4core3ffi5c_str4CStr19from_bytes_with_nul17h56c199ab25f830eaE, symObjAddr: 0xDAC, symBinAddr: 0x41948, symSize: 0xF0 }
  - { offset: 0xE09B3, size: 0x8, addend: 0x0, symName: __ZN4core3ffi5c_str4CStr19from_bytes_with_nul17h56c199ab25f830eaE, symObjAddr: 0xDAC, symBinAddr: 0x41948, symSize: 0xF0 }
  - { offset: 0xE0AFF, size: 0x8, addend: 0x0, symName: __ZN4core4cell22panic_already_borrowed17hcf7064e22b753f7cE, symObjAddr: 0x148E4, symBinAddr: 0x4AB1C, symSize: 0x30 }
  - { offset: 0xE0B4A, size: 0x8, addend: 0x0, symName: '__ZN65_$LT$core..cell..BorrowMutError$u20$as$u20$core..fmt..Display$GT$3fmt17hd1e1e177dc655dc3E', symObjAddr: 0x19194, symBinAddr: 0x45A54, symSize: 0x14 }
  - { offset: 0xE0B99, size: 0x8, addend: 0x0, symName: __ZN4core7unicode12unicode_data15grapheme_extend11lookup_slow17hf5146b7c2c84f013E, symObjAddr: 0x15660, symBinAddr: 0x455B0, symSize: 0x108 }
  - { offset: 0xE0D67, size: 0x8, addend: 0x0, symName: __ZN4core7unicode9printable12is_printable17he19e46ff7afbbad9E, symObjAddr: 0x15B7C, symBinAddr: 0x456B8, symSize: 0x37C }
  - { offset: 0xE1079, size: 0x8, addend: 0x0, symName: __ZN4core9panicking11panic_const23panic_const_div_by_zero17h1ba26cf951956a27E, symObjAddr: 0x15EF8, symBinAddr: 0x4ACB4, symSize: 0x1C }
  - { offset: 0xE1093, size: 0x8, addend: 0x0, symName: __ZN4core9panicking11panic_const23panic_const_rem_by_zero17h33f01e488a8556f8E, symObjAddr: 0x15F30, symBinAddr: 0x4ACD0, symSize: 0x1C }
  - { offset: 0xE10AD, size: 0x8, addend: 0x0, symName: __ZN4core9panicking11panic_const24panic_const_add_overflow17hb404b8d3cf7376f5E, symObjAddr: 0x15F4C, symBinAddr: 0x4ACEC, symSize: 0x1C }
  - { offset: 0xE10C7, size: 0x8, addend: 0x0, symName: __ZN4core9panicking11panic_const24panic_const_sub_overflow17hc2b1061e0e5a5bd9E, symObjAddr: 0x16010, symBinAddr: 0x4AD08, symSize: 0x1C }
  - { offset: 0xE10E2, size: 0x8, addend: 0x0, symName: __ZN4core9panicking13assert_failed17h1086ad957fbd21e7E, symObjAddr: 0x16160, symBinAddr: 0x4AD24, symSize: 0x28 }
  - { offset: 0xE10FD, size: 0x8, addend: 0x0, symName: __ZN4core9panicking13assert_failed17h5227745eefce94e6E, symObjAddr: 0x16188, symBinAddr: 0x4AD4C, symSize: 0x28 }
  - { offset: 0xE1118, size: 0x8, addend: 0x0, symName: __ZN4core9panicking13assert_failed17h58dd0573f242b357E, symObjAddr: 0x161B0, symBinAddr: 0x4AD74, symSize: 0x28 }
  - { offset: 0xE1132, size: 0x8, addend: 0x0, symName: __ZN4core9panicking14panic_nounwind17h57b3287bd6acdde6E, symObjAddr: 0x161D8, symBinAddr: 0x4AD9C, symSize: 0x20 }
  - { offset: 0xE1160, size: 0x8, addend: 0x0, symName: __ZN4core9panicking16panic_in_cleanup17h2d3328184a42aad6E, symObjAddr: 0x16234, symBinAddr: 0x4ADBC, symSize: 0x18 }
  - { offset: 0xE117A, size: 0x8, addend: 0x0, symName: __ZN4core9panicking18panic_bounds_check17h865e5d10cdb12e28E, symObjAddr: 0x1624C, symBinAddr: 0x4ADD4, symSize: 0x38 }
  - { offset: 0xE11A8, size: 0x8, addend: 0x0, symName: __ZN4core9panicking18panic_nounwind_fmt17ha0c5189cd8bf4c83E, symObjAddr: 0x16284, symBinAddr: 0x4AE0C, symSize: 0x30 }
  - { offset: 0xE11EC, size: 0x8, addend: 0x0, symName: __ZN4core9panicking19assert_failed_inner17h74a6475222fe9ddfE, symObjAddr: 0x162B4, symBinAddr: 0x4AE3C, symSize: 0xBC }
  - { offset: 0xE1206, size: 0x8, addend: 0x0, symName: __ZN4core9panicking19panic_cannot_unwind17h441ae677ff4cf575E, symObjAddr: 0x16370, symBinAddr: 0x4AEF8, symSize: 0x18 }
  - { offset: 0xE1220, size: 0x8, addend: 0x0, symName: __ZN4core9panicking26panic_nounwind_nobacktrace17h0612749ec66617aeE, symObjAddr: 0x16388, symBinAddr: 0x4AF10, symSize: 0x20 }
  - { offset: 0xE124E, size: 0x8, addend: 0x0, symName: __ZN4core9panicking30panic_null_pointer_dereference17hb0645a3bc8f95170E, symObjAddr: 0x163A8, symBinAddr: 0x4AF30, symSize: 0x1C }
  - { offset: 0xE1268, size: 0x8, addend: 0x0, symName: __ZN4core9panicking36panic_misaligned_pointer_dereference17h286f4890568d68cbE, symObjAddr: 0x163F8, symBinAddr: 0x4AF4C, symSize: 0x3C }
  - { offset: 0xE1282, size: 0x8, addend: 0x0, symName: __ZN4core9panicking5panic17hb152b149bd05e810E, symObjAddr: 0x16434, symBinAddr: 0x4AF88, symSize: 0x14 }
  - { offset: 0xE12B0, size: 0x8, addend: 0x0, symName: __ZN4core9panicking9panic_fmt17ha09fb24313daf262E, symObjAddr: 0x16448, symBinAddr: 0x4AF9C, symSize: 0x28 }
  - { offset: 0xE131E, size: 0x8, addend: 0x0, symName: _OUTLINED_FUNCTION_0, symObjAddr: 0x1D9CC, symBinAddr: 0x45F2C, symSize: 0x10 }
  - { offset: 0xE1336, size: 0x8, addend: 0x0, symName: _OUTLINED_FUNCTION_1, symObjAddr: 0x1D9DC, symBinAddr: 0x45F3C, symSize: 0x8 }
...
